
GccApplication1.elf:     file format elf32-avr

Sections:
Idx Name          Size      VMA       LMA       File off  Algn
  0 .text         000030ee  00000000  00000000  00000094  2**1
                  CONTENTS, ALLOC, LOAD, READONLY, CODE
  1 .data         00000072  00800060  000030ee  00003182  2**0
                  CONTENTS, ALLOC, LOAD, DATA
  2 .bss          00000573  008000d2  008000d2  000031f4  2**0
                  ALLOC
  3 .stab         000011dc  00000000  00000000  000031f4  2**2
                  CONTENTS, READONLY, DEBUGGING
  4 .stabstr      0000059e  00000000  00000000  000043d0  2**0
                  CONTENTS, READONLY, DEBUGGING
  5 .comment      0000002f  00000000  00000000  0000496e  2**0
                  CONTENTS, READONLY
  6 .debug_aranges 00000658  00000000  00000000  0000499d  2**0
                  CONTENTS, READONLY, DEBUGGING
  7 .debug_info   000082bc  00000000  00000000  00004ff5  2**0
                  CONTENTS, READONLY, DEBUGGING
  8 .debug_abbrev 00001b8c  00000000  00000000  0000d2b1  2**0
                  CONTENTS, READONLY, DEBUGGING
  9 .debug_line   00002c17  00000000  00000000  0000ee3d  2**0
                  CONTENTS, READONLY, DEBUGGING
 10 .debug_frame  00001468  00000000  00000000  00011a54  2**2
                  CONTENTS, READONLY, DEBUGGING
 11 .debug_str    0000190c  00000000  00000000  00012ebc  2**0
                  CONTENTS, READONLY, DEBUGGING
 12 .debug_loc    00007d64  00000000  00000000  000147c8  2**0
                  CONTENTS, READONLY, DEBUGGING
 13 .debug_ranges 00000608  00000000  00000000  0001c52c  2**0
                  CONTENTS, READONLY, DEBUGGING

Disassembly of section .text:

00000000 <__vectors>:
        if (buf[UDP_DATA_P+4]==2) return(1); // we did set first byte in transaction ID to 2 to indicate renew request. This trick makes the processing of the DHCPACK message easier.
        return(0);
}

uint8_t dhcp_option_parser(uint8_t *buf,uint16_t plen)
{
       0:	0c 94 78 02 	jmp	0x4f0	; 0x4f0 <__ctors_end>
       4:	0c 94 95 02 	jmp	0x52a	; 0x52a <__bad_interrupt>
       8:	0c 94 95 02 	jmp	0x52a	; 0x52a <__bad_interrupt>
       c:	0c 94 95 02 	jmp	0x52a	; 0x52a <__bad_interrupt>
      10:	0c 94 95 02 	jmp	0x52a	; 0x52a <__bad_interrupt>
      14:	0c 94 95 02 	jmp	0x52a	; 0x52a <__bad_interrupt>
      18:	0c 94 95 02 	jmp	0x52a	; 0x52a <__bad_interrupt>
      1c:	0c 94 95 02 	jmp	0x52a	; 0x52a <__bad_interrupt>
      20:	0c 94 95 02 	jmp	0x52a	; 0x52a <__bad_interrupt>
      24:	0c 94 95 02 	jmp	0x52a	; 0x52a <__bad_interrupt>
      28:	0c 94 95 02 	jmp	0x52a	; 0x52a <__bad_interrupt>
      2c:	0c 94 95 02 	jmp	0x52a	; 0x52a <__bad_interrupt>
      30:	0c 94 95 02 	jmp	0x52a	; 0x52a <__bad_interrupt>
      34:	0c 94 95 02 	jmp	0x52a	; 0x52a <__bad_interrupt>
        uint16_t option_idx;
        uint8_t option_len;
        uint8_t i;
        uint32_t ltime_int32=0;
        // the smallest option is 3 bytes
        if (plen<(UDP_DATA_P+DHCP_OPTION_OFFSET+3)) return(0);
      38:	0c 94 95 02 	jmp	0x52a	; 0x52a <__bad_interrupt>
      3c:	0c 94 95 02 	jmp	0x52a	; 0x52a <__bad_interrupt>
        // options are coded in the form: option_type,option_len,option_val
        option_idx=UDP_DATA_P+DHCP_OPTION_OFFSET;
        while(option_idx+2 <plen ){
                option_len=buf[option_idx+1];
      40:	0c 94 95 02 	jmp	0x52a	; 0x52a <__bad_interrupt>
      44:	0c 94 95 02 	jmp	0x52a	; 0x52a <__bad_interrupt>
                if ((option_len<1) || ((option_idx + option_len + 1)> plen)) break;
      48:	0c 94 95 02 	jmp	0x52a	; 0x52a <__bad_interrupt>
      4c:	0c 94 95 02 	jmp	0x52a	; 0x52a <__bad_interrupt>
      50:	0c 94 95 02 	jmp	0x52a	; 0x52a <__bad_interrupt>

00000054 <__c.1976>:
      54:	46 69 6c 65 20 64 6f 65 73 20 6e 6f 74 20 65 78     File does not ex
      64:	69 73 74 21 00                                      ist!.

00000069 <__c.1981>:
      69:	44 65 6c 65 74 69 6e 67 2e 2e 00                    Deleting...

00000074 <__c.1983>:
      74:	46 69 6c 65 20 64 65 6c 65 74 65 64 21 00           File deleted!.

00000082 <__c.1989>:
        if (plen<0x100) return(0);
        if (buf[UDP_DATA_P+4]==2) return(1); // we did set first byte in transaction ID to 2 to indicate renew request. This trick makes the processing of the DHCPACK message easier.
        return(0);
}

uint8_t dhcp_option_parser(uint8_t *buf,uint16_t plen)
      82:	20 20 20 00                                            .

00000086 <__c.1991>:
      86:	46 49 4c 45 00                                      FILE.

0000008b <__c.1993>:
      8b:	20 20 20 00                                            .

0000008f <__c.1995>:
      8f:	44 49 52 00                                         DIR.

00000093 <__c.1997>:
                // The max lease time size is therefore 32 bit. 
                // The code for this option is 51, and its length is 4
                // as per RFC 1533.
                case 51: 
                        if (option_len!=4){
                                dhcp_opt_leasetime_minutes=1440; // just to have a reasonable value: 1 day
      93:	52 4f 4f 54 00                                      ROOT.

00000098 <__c.2005>:
      98:	45 72 72 6f 72 20 69 6e 20 67 65 74 74 69 6e 67     Error in getting
        if (plen<0x100) return(0);
        if (buf[UDP_DATA_P+4]==2) return(1); // we did set first byte in transaction ID to 2 to indicate renew request. This trick makes the processing of the DHCPACK message easier.
        return(0);
}

uint8_t dhcp_option_parser(uint8_t *buf,uint16_t plen)
      a8:	20 63 6c 75 73 74 65 72 00                           cluster.

000000b1 <__c.2026>:
      b1:	45 72 72 6f 72 20 69 6e 20 67 65 74 74 69 6e 67     Error in getting
      c1:	20 63 6c 75 73 74 65 72 00                           cluster.

000000ca <__c.2038>:
        // the smallest option is 3 bytes
        if (plen<(UDP_DATA_P+DHCP_OPTION_OFFSET+3)) return(0);
        // options are coded in the form: option_type,option_len,option_val
        option_idx=UDP_DATA_P+DHCP_OPTION_OFFSET;
        while(option_idx+2 <plen ){
                option_len=buf[option_idx+1];
      ca:	49 6e 76 61 6c 69 64 20 66 69 6c 65 4e 61 6d 65     Invalid fileName
                if ((option_len<1) || ((option_idx + option_len + 1)> plen)) break;
      da:	2e 2e 00                                            ...

000000dd <__c.2081>:
      dd:	20 4e 6f 20 66 72 65 65 20 63 6c 75 73 74 65 72      No free cluster
      ed:	21 00                                               !.

000000ef <__c.2089>:
      ef:	20 4e 6f 20 66 72 65 65 20 63 6c 75 73 74 65 72      No free cluster
      ff:	21 00                                               !.

00000101 <__c.2101>:
     101:	45 6e 64 20 6f 66 20 43 6c 75 73 74 65 72 20 43     End of Cluster C
                switch (buf[option_idx]){
     111:	68 61 69 6e 00                                      hain.

00000116 <__c.2103>:
     116:	45 72 72 6f 72 20 69 6e 20 67 65 74 74 69 6e 67     Error in getting
     126:	20 63 6c 75 73 74 65 72 00                           cluster.

0000012f <__c.2356>:
     12f:	48 54 54 50 2f 31 2e 30 20 32 30 30 20 4f 4b 0d     HTTP/1.0 200 OK.
                case 0: option_idx=plen; // stop loop, we are reading some padding bytes here (should not happen)
                        break;
                     
                case 1: if (option_len==4){
     13f:	0a 43 6f 6e 74 65 6e 74 2d 54 79 70 65 3a 20 74     .Content-Type: t
        if (plen<0x100) return(0);
        if (buf[UDP_DATA_P+4]==2) return(1); // we did set first byte in transaction ID to 2 to indicate renew request. This trick makes the processing of the DHCPACK message easier.
        return(0);
}

uint8_t dhcp_option_parser(uint8_t *buf,uint16_t plen)
     14f:	65 78 74 2f 68 74 6d 6c 0d 0a 50 72 61 67 6d 61     ext/html..Pragma
                case 0: option_idx=plen; // stop loop, we are reading some padding bytes here (should not happen)
                        break;
                     
                case 1: if (option_len==4){
                                i=0;
                                while(i<4){
     15f:	3a 20 6e 6f 2d 63 61 63 68 65 0d 0a 0d 0a 00        : no-cache.....

0000016e <__c.2366>:
                                        dhcp_opt_mask[i]=buf[option_idx+2+i];
                                        i++;
                                }
                        }
                        break;
                case 3: if (option_len==4){
     16e:	3c 70 72 65 3e 00                                   <pre>.

00000174 <__c.2368>:
        if (plen<0x100) return(0);
        if (buf[UDP_DATA_P+4]==2) return(1); // we did set first byte in transaction ID to 2 to indicate renew request. This trick makes the processing of the DHCPACK message easier.
        return(0);
}

uint8_t dhcp_option_parser(uint8_t *buf,uint16_t plen)
     174:	3c 63 65 6e 74 65 72 3e 3c 70 3e 3c 68 31 3e 20     <center><p><h1> 
     184:	57 65 62 20 53 65 72 76 65 72 20 41 70 70 6c 69     Web Server Appli
                                }
                        }
                        break;
                case 3: if (option_len==4){
                                i=0;
                                while(i<4){
     194:	63 61 74 69 6f 6e 20 66 6f 72 20 44 69 61 67 6e     cation for Diagn
        if (plen<0x100) return(0);
        if (buf[UDP_DATA_P+4]==2) return(1); // we did set first byte in transaction ID to 2 to indicate renew request. This trick makes the processing of the DHCPACK message easier.
        return(0);
}

uint8_t dhcp_option_parser(uint8_t *buf,uint16_t plen)
     1a4:	6f 73 74 69 63 20 44 65 76 69 63 65 73 20 69 6e     ostic Devices in
     1b4:	20 46 75 65 6c 20 43 65 6c 6c 20 53 79 73 74 65      Fuel Cell Syste
                                dhcp_opt_leasetime_minutes=1440; // just to have a reasonable value: 1 day
                                break;
                        }
                        i=0;
                        while(i<4){
                                ltime_int32=(ltime_int32<<8) | buf[option_idx+i+2];
     1c4:	6d 73 20 56 31 2e 30 20 7c 4c 45 4e 41 20 4f 56     ms V1.0 |LENA OV
                        if (option_len!=4){
                                dhcp_opt_leasetime_minutes=1440; // just to have a reasonable value: 1 day
                                break;
                        }
                        i=0;
                        while(i<4){
     1d4:	47 55 20 3c 2f 68 31 3e 3c 2f 70 3e 3c 2f 68 32     GU </h1></p></h2
                        if (ltime_int32==0xffffffff){
                                // lease time is infinity
                                dhcp_opt_leasetime_minutes=0xffff;
                                break; // end of switch
                        }
                        ltime_int32=ltime_int32>>6; // an inexpesive way to divide by 64 (which is roughly equal to divide by 60)
     1e4:	3e 20 20 20 20 20 20 20 20 20 00                    >         .

000001ef <__c.2370>:
     1ef:	3c 6c 65 66 74 3e 3c 73 74 79 6c 65 3e 62 6f 64     <left><style>bod
     1ff:	79 7b 62 61 63 6b 67 72 6f 75 6e 64 2d 63 6f 6c     y{background-col
                        if (ltime_int32> 0xfffd){ //0xffff is not handeled here because of the above break
                                dhcp_opt_leasetime_minutes=0xfffd;
                        }else{
                                dhcp_opt_leasetime_minutes=ltime_int32 & 0xffff;
     20f:	6f 72 3a 67 72 65 79 3b 66 6f 6e 74 3a 31 30 70     or:grey;font:10p
                        }
                        if (dhcp_opt_leasetime_minutes<5) dhcp_opt_leasetime_minutes=5;
     21f:	74 2f 31 32 70 74 20 66 61 6e 74 61 73 79 3b 3c     t/12pt fantasy;<
                        break;
                case 53: dhcp_opt_message_type=buf[option_idx+2];
                        break;
     22f:	2f 73 74 79 6c 65 3e 3c 68 32 3e 00                 /style><h2>.

0000023b <__c.2372>:
        if (plen<0x100) return(0);
        if (buf[UDP_DATA_P+4]==2) return(1); // we did set first byte in transaction ID to 2 to indicate renew request. This trick makes the processing of the DHCPACK message easier.
        return(0);
}

uint8_t dhcp_option_parser(uint8_t *buf,uint16_t plen)
     23b:	53 65 6e 73 6f 72 73 20 6f 6e 20 57 65 62 20 3c     Sensors on Web <
     24b:	2f 68 32 3e 20 20 20 00                             /h2>   .

00000253 <__c.2374>:
                        break;
                        // rfc 2131: A DHCP server always returns its 
                        // own address in the 'server identifier' option
                case 54: if (option_len==4){
                                i=0;
                                while(i<4){
     253:	3c 6c 65 66 74 3e 3c 68 32 3e 43 75 72 72 65 6e     <left><h2>Curren
        option_idx=UDP_DATA_P+DHCP_OPTION_OFFSET;
        while(option_idx+2 <plen ){
                option_len=buf[option_idx+1];
                if ((option_len<1) || ((option_idx + option_len + 1)> plen)) break;
                switch (buf[option_idx]){
                case 0: option_idx=plen; // stop loop, we are reading some padding bytes here (should not happen)
     263:	74 20 54 65 6d 70 65 72 61 74 75 72 65 20 69 73     t Temperature is
                                dhcp_opt_leasetime_minutes=0xffff;
                                break; // end of switch
                        }
                        ltime_int32=ltime_int32>>6; // an inexpesive way to divide by 64 (which is roughly equal to divide by 60)
                        if (ltime_int32> 0xfffd){ //0xffff is not handeled here because of the above break
                                dhcp_opt_leasetime_minutes=0xfffd;
     273:	20 3d 20 33 36 20 43 20 3c 2f 68 32 3e 20 20 20      = 36 C </h2>   
	...

00000284 <__c.2379>:
        uint32_t ltime_int32=0;
        // the smallest option is 3 bytes
        if (plen<(UDP_DATA_P+DHCP_OPTION_OFFSET+3)) return(0);
        // options are coded in the form: option_type,option_len,option_val
        option_idx=UDP_DATA_P+DHCP_OPTION_OFFSET;
        while(option_idx+2 <plen ){
     284:	3c 6c 65 66 74 3e 3c 68 32 3e 43 75 72 72 65 6e     <left><h2>Curren
     294:	74 20 44 65 6e 73 69 74 79 20 69 73 20 3d 20 34     t Density is = 4
                        }
                        break;
                }
                option_idx+=2+option_len;
        }
        return(1);
     2a4:	2e 31 35 20 41 20 3c 2f 68 32 3e 20 20 20 00        .15 A </h2>   .

000002b3 <__c.2381>:
}
     2b3:	3c 6c 65 66 74 3e 3c 68 32 3e 56 6f 6c 74 61 67     <left><h2>Voltag
     2c3:	65 20 69 73 20 3d 20 34 35 20 56 20 3c 2f 68 32     e is = 45 V </h2
     2d3:	3e 20 20 20 20 20 00                                >     .

000002da <__c.2383>:
     2da:	3c 68 72 3e 3c 62 72 3e 3c 2f 66 6f 72 6d 3e 20     <hr><br></form> 
     2ea:	44 65 76 65 6c 6f 70 65 64 20 62 79 20 4c 45 4e     Developed by LEN
     2fa:	41 2d 4f 56 47 55 20 20 20 20 20 76 65 72 73 69     A-OVGU     versi
     30a:	6f 6e 20 31 2e 30 00                                on 1.0.

00000311 <__c.2385>:
     311:	3c 68 32 3e 00                                      <h2>.

00000316 <__c.2446>:
     316:	0a 0d 0a 0d 2a 2a 2a 2a 2a 2a 2a 2a 2a 2a 2a 2a     ....************
     326:	2a 2a 2a 2a 2a 2a 2a 2a 2a 2a 2a 2a 2a 2a 2a 2a     ****************
     336:	2a 2a 2a 2a 2a 2a 2a 2a 2a 2a 2a 2a 2a 2a 2a 2a     ****************
     346:	2a 2a 2a 2a 2a 2a 2a 2a 00                          ********.

0000034f <__c.2448>:
     34f:	0a 0d 20 20 20 20 20 20 20 20 20 6d 69 63 72 6f     ..         micro
     35f:	53 44 20 44 61 74 61 6c 6f 67 67 65 72 20 2d 20     SD Datalogger - 
     36f:	4c 45 4e 41 20 4f 56 47 55 20 00                    LENA OVGU .

0000037a <__c.2450>:
     37a:	0a 0d 2a 2a 2a 2a 2a 2a 2a 2a 2a 2a 2a 2a 2a 2a     ..**************
     38a:	2a 2a 2a 2a 2a 2a 2a 2a 2a 2a 2a 2a 2a 2a 2a 2a     ****************
     39a:	2a 2a 2a 2a 2a 2a 2a 2a 2a 2a 2a 2a 2a 2a 2a 2a     ****************
     3aa:	2a 2a 2a 2a 2a 2a 0a 0d 00                          ******...

000003b3 <__c.2455>:
     3b3:	53 44 20 63 61 72 64 20 6e 6f 74 20 64 65 74 65     SD card not dete
     3c3:	63 74 65 64 2e 2e 00                                cted...

000003ca <__c.2457>:
     3ca:	43 61 72 64 20 49 6e 69 74 69 61 6c 69 7a 61 74     Card Initializat
     3da:	69 6f 6e 20 66 61 69 6c 65 64 2e 2e 00              ion failed...

000003e7 <__c.2460>:
     3e7:	53 74 61 6e 64 61 72 64 20 43 61 70 61 63 69 74     Standard Capacit
     3f7:	79 20 43 61 72 64 20 28 56 65 72 20 31 2e 78 29     y Card (Ver 1.x)
     407:	20 44 65 74 65 63 74 65 64 21 00                     Detected!.

00000412 <__c.2464>:
     412:	48 69 67 68 20 43 61 70 61 63 69 74 79 20 43 61     High Capacity Ca
     422:	72 64 20 44 65 74 65 63 74 65 64 21 00              rd Detected!.

0000042f <__c.2467>:
     42f:	53 74 61 6e 64 61 72 64 20 43 61 70 61 63 69 74     Standard Capacit
     43f:	79 20 43 61 72 64 20 28 56 65 72 20 32 2e 78 29     y Card (Ver 2.x)
     44f:	20 44 65 74 65 63 74 65 64 21 00                     Detected!.

0000045a <__c.2470>:
     45a:	55 6e 6b 6e 6f 77 6e 20 53 44 20 43 61 72 64 20     Unknown SD Card 
     46a:	44 65 74 65 63 74 65 64 21 00                       Detected!.

00000474 <__c.2472>:
     474:	0a 0d 46 41 54 33 32 20 6e 6f 74 20 66 6f 75 6e     ..FAT32 not foun
     484:	64 21 00                                            d!.

00000487 <__c.2496>:
     487:	3c 68 31 3e 32 30 30 20 4f 4b 3c 2f 68 31 3e 00     <h1>200 OK</h1>.

00000497 <__c.2499>:
     497:	48 54 54 50 2f 31 2e 30 20 34 30 31 20 55 6e 61     HTTP/1.0 401 Una
     4a7:	75 74 68 6f 72 69 7a 65 64 0d 0a 43 6f 6e 74 65     uthorized..Conte
     4b7:	6e 74 2d 54 79 70 65 3a 20 74 65 78 74 2f 68 74     nt-Type: text/ht
     4c7:	6d 6c 0d 0a 0d 0a 3c 68 31 3e 34 30 31 20 55 6e     ml....<h1>401 Un
     4d7:	61 75 74 68 6f 72 69 7a 65 64 3c 2f 68 31 3e 00     authorized</h1>.

000004e7 <arpreqhdr>:
     4e7:	00 01 08 00 06 04 00 01 00                          .........

000004f0 <__ctors_end>:
     4f0:	11 24       	eor	r1, r1
     4f2:	1f be       	out	0x3f, r1	; 63
     4f4:	cf e5       	ldi	r28, 0x5F	; 95
     4f6:	d8 e0       	ldi	r29, 0x08	; 8
     4f8:	de bf       	out	0x3e, r29	; 62
     4fa:	cd bf       	out	0x3d, r28	; 61

000004fc <__do_copy_data>:
     4fc:	10 e0       	ldi	r17, 0x00	; 0
     4fe:	a0 e6       	ldi	r26, 0x60	; 96
     500:	b0 e0       	ldi	r27, 0x00	; 0
     502:	ee ee       	ldi	r30, 0xEE	; 238
     504:	f0 e3       	ldi	r31, 0x30	; 48
     506:	02 c0       	rjmp	.+4      	; 0x50c <__do_copy_data+0x10>
     508:	05 90       	lpm	r0, Z+
     50a:	0d 92       	st	X+, r0
     50c:	a2 3d       	cpi	r26, 0xD2	; 210
     50e:	b1 07       	cpc	r27, r17
     510:	d9 f7       	brne	.-10     	; 0x508 <__do_copy_data+0xc>

00000512 <__do_clear_bss>:
     512:	26 e0       	ldi	r18, 0x06	; 6
     514:	a2 ed       	ldi	r26, 0xD2	; 210
     516:	b0 e0       	ldi	r27, 0x00	; 0
     518:	01 c0       	rjmp	.+2      	; 0x51c <.do_clear_bss_start>

0000051a <.do_clear_bss_loop>:
     51a:	1d 92       	st	X+, r1

0000051c <.do_clear_bss_start>:
     51c:	a5 34       	cpi	r26, 0x45	; 69
     51e:	b2 07       	cpc	r27, r18
     520:	e1 f7       	brne	.-8      	; 0x51a <.do_clear_bss_loop>
     522:	0e 94 0a 10 	call	0x2014	; 0x2014 <main>
     526:	0c 94 75 18 	jmp	0x30ea	; 0x30ea <_exit>

0000052a <__bad_interrupt>:
     52a:	0c 94 00 00 	jmp	0	; 0x0 <__vectors>

0000052e <enc28j60ReadOp>:
static uint8_t Enc28j60Bank;
static uint16_t gNextPacketPtr;

uint8_t enc28j60ReadOp(uint8_t op, uint8_t address)
{
	ENC_CS_ACTIVE;
     52e:	c4 98       	cbi	0x18, 4	; 24
	// issue read command
	SPDR = op | (address & ADDR_MASK);
     530:	96 2f       	mov	r25, r22
     532:	9f 71       	andi	r25, 0x1F	; 31
     534:	89 2b       	or	r24, r25
     536:	8f b9       	out	0x0f, r24	; 15
	waitspi();
     538:	77 9b       	sbis	0x0e, 7	; 14
     53a:	fe cf       	rjmp	.-4      	; 0x538 <enc28j60ReadOp+0xa>
	// read data
	SPDR = 0x00;
     53c:	1f b8       	out	0x0f, r1	; 15
	waitspi();
     53e:	77 9b       	sbis	0x0e, 7	; 14
     540:	fe cf       	rjmp	.-4      	; 0x53e <enc28j60ReadOp+0x10>
	// do dummy read if needed (for mac and mii, see datasheet page 29)
	if(address & 0x80)
     542:	66 23       	and	r22, r22
     544:	1c f4       	brge	.+6      	; 0x54c <enc28j60ReadOp+0x1e>
	{
		SPDR = 0x00;
     546:	1f b8       	out	0x0f, r1	; 15
		waitspi();
     548:	77 9b       	sbis	0x0e, 7	; 14
     54a:	fe cf       	rjmp	.-4      	; 0x548 <enc28j60ReadOp+0x1a>
	}
	// release CS
	ENC_CS_PASSIVE;
     54c:	c4 9a       	sbi	0x18, 4	; 24
	return(SPDR);
     54e:	8f b1       	in	r24, 0x0f	; 15
}
     550:	08 95       	ret

00000552 <enc28j60WriteOp>:

void enc28j60WriteOp(uint8_t op, uint8_t address, uint8_t data)
{
	ENC_CS_ACTIVE;
     552:	c4 98       	cbi	0x18, 4	; 24
	// issue write command
	SPDR = op | (address & ADDR_MASK);
     554:	6f 71       	andi	r22, 0x1F	; 31
     556:	86 2b       	or	r24, r22
     558:	8f b9       	out	0x0f, r24	; 15
	waitspi();
     55a:	77 9b       	sbis	0x0e, 7	; 14
     55c:	fe cf       	rjmp	.-4      	; 0x55a <enc28j60WriteOp+0x8>
	// write data
	SPDR = data;
     55e:	4f b9       	out	0x0f, r20	; 15
	waitspi();
     560:	77 9b       	sbis	0x0e, 7	; 14
     562:	fe cf       	rjmp	.-4      	; 0x560 <enc28j60WriteOp+0xe>
	ENC_CS_PASSIVE;
     564:	c4 9a       	sbi	0x18, 4	; 24
     566:	08 95       	ret

00000568 <enc28j60ReadBuffer>:
}

void enc28j60ReadBuffer(uint16_t len, uint8_t* data)
{
     568:	fb 01       	movw	r30, r22
        ENC_CS_ACTIVE;
     56a:	c4 98       	cbi	0x18, 4	; 24
        // issue read command
        SPDR = ENC28J60_READ_BUF_MEM;
     56c:	2a e3       	ldi	r18, 0x3A	; 58
     56e:	2f b9       	out	0x0f, r18	; 15
        waitspi();
     570:	77 9b       	sbis	0x0e, 7	; 14
     572:	fe cf       	rjmp	.-4      	; 0x570 <enc28j60ReadBuffer+0x8>
        while(len)
     574:	00 97       	sbiw	r24, 0x00	; 0
     576:	51 f0       	breq	.+20     	; 0x58c <enc28j60ReadBuffer+0x24>
	SPDR = data;
	waitspi();
	ENC_CS_PASSIVE;
}

void enc28j60ReadBuffer(uint16_t len, uint8_t* data)
     578:	8e 0f       	add	r24, r30
     57a:	9f 1f       	adc	r25, r31
        waitspi();
        while(len)
        {
                len--;
                // read data
                SPDR = 0x00;
     57c:	1f b8       	out	0x0f, r1	; 15
                waitspi();
     57e:	77 9b       	sbis	0x0e, 7	; 14
     580:	fe cf       	rjmp	.-4      	; 0x57e <enc28j60ReadBuffer+0x16>
                *data = SPDR;
     582:	2f b1       	in	r18, 0x0f	; 15
     584:	21 93       	st	Z+, r18
{
        ENC_CS_ACTIVE;
        // issue read command
        SPDR = ENC28J60_READ_BUF_MEM;
        waitspi();
        while(len)
     586:	e8 17       	cp	r30, r24
     588:	f9 07       	cpc	r31, r25
     58a:	c1 f7       	brne	.-16     	; 0x57c <enc28j60ReadBuffer+0x14>
                SPDR = 0x00;
                waitspi();
                *data = SPDR;
                data++;
        }
        *data='\0';
     58c:	10 82       	st	Z, r1
        ENC_CS_PASSIVE;
     58e:	c4 9a       	sbi	0x18, 4	; 24
     590:	08 95       	ret

00000592 <enc28j60WriteBuffer>:
}

void enc28j60WriteBuffer(uint16_t len, uint8_t* data)
{
     592:	fb 01       	movw	r30, r22
        ENC_CS_ACTIVE;
     594:	c4 98       	cbi	0x18, 4	; 24
        // issue write command
        SPDR = ENC28J60_WRITE_BUF_MEM;
     596:	2a e7       	ldi	r18, 0x7A	; 122
     598:	2f b9       	out	0x0f, r18	; 15
        waitspi();
     59a:	77 9b       	sbis	0x0e, 7	; 14
     59c:	fe cf       	rjmp	.-4      	; 0x59a <enc28j60WriteBuffer+0x8>
     59e:	07 c0       	rjmp	.+14     	; 0x5ae <enc28j60WriteBuffer+0x1c>
        }
        *data='\0';
        ENC_CS_PASSIVE;
}

void enc28j60WriteBuffer(uint16_t len, uint8_t* data)
     5a0:	8e 0f       	add	r24, r30
     5a2:	9f 1f       	adc	r25, r31
        waitspi();
        while(len)
        {
                len--;
                // write data
                SPDR = *data;
     5a4:	21 91       	ld	r18, Z+
     5a6:	2f b9       	out	0x0f, r18	; 15
                data++;
                waitspi();
     5a8:	77 9b       	sbis	0x0e, 7	; 14
     5aa:	fe cf       	rjmp	.-4      	; 0x5a8 <enc28j60WriteBuffer+0x16>
     5ac:	03 c0       	rjmp	.+6      	; 0x5b4 <enc28j60WriteBuffer+0x22>
{
        ENC_CS_ACTIVE;
        // issue write command
        SPDR = ENC28J60_WRITE_BUF_MEM;
        waitspi();
        while(len)
     5ae:	00 97       	sbiw	r24, 0x00	; 0
     5b0:	b9 f7       	brne	.-18     	; 0x5a0 <enc28j60WriteBuffer+0xe>
     5b2:	03 c0       	rjmp	.+6      	; 0x5ba <enc28j60WriteBuffer+0x28>
     5b4:	e8 17       	cp	r30, r24
     5b6:	f9 07       	cpc	r31, r25
     5b8:	a9 f7       	brne	.-22     	; 0x5a4 <enc28j60WriteBuffer+0x12>
                // write data
                SPDR = *data;
                data++;
                waitspi();
        }
        ENC_CS_PASSIVE;
     5ba:	c4 9a       	sbi	0x18, 4	; 24
     5bc:	08 95       	ret

000005be <enc28j60SetBank>:
}

void enc28j60SetBank(uint8_t address)
{
     5be:	1f 93       	push	r17
     5c0:	cf 93       	push	r28
     5c2:	df 93       	push	r29
        // set the bank (if needed)
        if((address & BANK_MASK) != Enc28j60Bank)
     5c4:	18 2f       	mov	r17, r24
     5c6:	10 76       	andi	r17, 0x60	; 96
     5c8:	c1 2f       	mov	r28, r17
     5ca:	d0 e0       	ldi	r29, 0x00	; 0
     5cc:	20 91 d2 00 	lds	r18, 0x00D2
     5d0:	30 e0       	ldi	r19, 0x00	; 0
     5d2:	c2 17       	cp	r28, r18
     5d4:	d3 07       	cpc	r29, r19
     5d6:	b1 f0       	breq	.+44     	; 0x604 <enc28j60SetBank+0x46>
        {
                // set the bank
                enc28j60WriteOp(ENC28J60_BIT_FIELD_CLR, ECON1, (ECON1_BSEL1|ECON1_BSEL0));
     5d8:	43 e0       	ldi	r20, 0x03	; 3
     5da:	6f e1       	ldi	r22, 0x1F	; 31
     5dc:	80 ea       	ldi	r24, 0xA0	; 160
     5de:	0e 94 a9 02 	call	0x552	; 0x552 <enc28j60WriteOp>
                enc28j60WriteOp(ENC28J60_BIT_FIELD_SET, ECON1, (address & BANK_MASK)>>5);
     5e2:	ae 01       	movw	r20, r28
     5e4:	55 95       	asr	r21
     5e6:	47 95       	ror	r20
     5e8:	55 95       	asr	r21
     5ea:	47 95       	ror	r20
     5ec:	55 95       	asr	r21
     5ee:	47 95       	ror	r20
     5f0:	55 95       	asr	r21
     5f2:	47 95       	ror	r20
     5f4:	55 95       	asr	r21
     5f6:	47 95       	ror	r20
     5f8:	6f e1       	ldi	r22, 0x1F	; 31
     5fa:	80 e8       	ldi	r24, 0x80	; 128
     5fc:	0e 94 a9 02 	call	0x552	; 0x552 <enc28j60WriteOp>
                Enc28j60Bank = (address & BANK_MASK);
     600:	10 93 d2 00 	sts	0x00D2, r17
        }
}
     604:	df 91       	pop	r29
     606:	cf 91       	pop	r28
     608:	1f 91       	pop	r17
     60a:	08 95       	ret

0000060c <enc28j60Read>:

uint8_t enc28j60Read(uint8_t address)
{
     60c:	cf 93       	push	r28
     60e:	c8 2f       	mov	r28, r24
        // set the bank
        enc28j60SetBank(address);
     610:	0e 94 df 02 	call	0x5be	; 0x5be <enc28j60SetBank>
        // do the read
        return enc28j60ReadOp(ENC28J60_READ_CTRL_REG, address);
     614:	6c 2f       	mov	r22, r28
     616:	80 e0       	ldi	r24, 0x00	; 0
     618:	0e 94 97 02 	call	0x52e	; 0x52e <enc28j60ReadOp>
}
     61c:	cf 91       	pop	r28
     61e:	08 95       	ret

00000620 <enc28j60Write>:
	
	return (enc28j60Read(MIRDH));
}

void enc28j60Write(uint8_t address, uint8_t data)
{
     620:	cf 93       	push	r28
     622:	df 93       	push	r29
     624:	c8 2f       	mov	r28, r24
     626:	d6 2f       	mov	r29, r22
        // set the bank
        enc28j60SetBank(address);
     628:	0e 94 df 02 	call	0x5be	; 0x5be <enc28j60SetBank>
        // do the write
        enc28j60WriteOp(ENC28J60_WRITE_CTRL_REG, address, data);
     62c:	4d 2f       	mov	r20, r29
     62e:	6c 2f       	mov	r22, r28
     630:	80 e4       	ldi	r24, 0x40	; 64
     632:	0e 94 a9 02 	call	0x552	; 0x552 <enc28j60WriteOp>
}
     636:	df 91       	pop	r29
     638:	cf 91       	pop	r28
     63a:	08 95       	ret

0000063c <enc28j60PhyReadH>:
// read upper 8 bits
uint16_t enc28j60PhyReadH(uint8_t address)
{

	// Set the right address and start the register read operation
	enc28j60Write(MIREGADR, address);
     63c:	68 2f       	mov	r22, r24
     63e:	84 ed       	ldi	r24, 0xD4	; 212
     640:	0e 94 10 03 	call	0x620	; 0x620 <enc28j60Write>
	enc28j60Write(MICMD, MICMD_MIIRD);
     644:	61 e0       	ldi	r22, 0x01	; 1
     646:	82 ed       	ldi	r24, 0xD2	; 210
     648:	0e 94 10 03 	call	0x620	; 0x620 <enc28j60Write>
	#else
		//round up by default
		__ticks_dc = (uint32_t)(ceil(fabs(__tmp)));
	#endif

	__builtin_avr_delay_cycles(__ticks_dc);
     64c:	80 e5       	ldi	r24, 0x50	; 80
     64e:	8a 95       	dec	r24
     650:	f1 f7       	brne	.-4      	; 0x64e <enc28j60PhyReadH+0x12>
        _delay_us(15);

	// wait until the PHY read completes
	while(enc28j60Read(MISTAT) & MISTAT_BUSY);
     652:	8a ee       	ldi	r24, 0xEA	; 234
     654:	0e 94 06 03 	call	0x60c	; 0x60c <enc28j60Read>
     658:	80 fd       	sbrc	r24, 0
     65a:	fb cf       	rjmp	.-10     	; 0x652 <enc28j60PhyReadH+0x16>

	// reset reading bit
	enc28j60Write(MICMD, 0x00);
     65c:	60 e0       	ldi	r22, 0x00	; 0
     65e:	82 ed       	ldi	r24, 0xD2	; 210
     660:	0e 94 10 03 	call	0x620	; 0x620 <enc28j60Write>
	
	return (enc28j60Read(MIRDH));
     664:	89 ed       	ldi	r24, 0xD9	; 217
     666:	0e 94 06 03 	call	0x60c	; 0x60c <enc28j60Read>
}
     66a:	90 e0       	ldi	r25, 0x00	; 0
     66c:	08 95       	ret

0000066e <enc28j60PhyWrite>:
        // do the write
        enc28j60WriteOp(ENC28J60_WRITE_CTRL_REG, address, data);
}

void enc28j60PhyWrite(uint8_t address, uint16_t data)
{
     66e:	cf 93       	push	r28
     670:	df 93       	push	r29
     672:	d6 2f       	mov	r29, r22
     674:	c7 2f       	mov	r28, r23
        // set the PHY register address
        enc28j60Write(MIREGADR, address);
     676:	68 2f       	mov	r22, r24
     678:	84 ed       	ldi	r24, 0xD4	; 212
     67a:	0e 94 10 03 	call	0x620	; 0x620 <enc28j60Write>
        // write the PHY data
        enc28j60Write(MIWRL, data);
     67e:	6d 2f       	mov	r22, r29
     680:	86 ed       	ldi	r24, 0xD6	; 214
     682:	0e 94 10 03 	call	0x620	; 0x620 <enc28j60Write>
        enc28j60Write(MIWRH, data>>8);
     686:	6c 2f       	mov	r22, r28
     688:	87 ed       	ldi	r24, 0xD7	; 215
     68a:	0e 94 10 03 	call	0x620	; 0x620 <enc28j60Write>
        // wait until the PHY write completes
        while(enc28j60Read(MISTAT) & MISTAT_BUSY){
     68e:	03 c0       	rjmp	.+6      	; 0x696 <enc28j60PhyWrite+0x28>
     690:	80 e5       	ldi	r24, 0x50	; 80
     692:	8a 95       	dec	r24
     694:	f1 f7       	brne	.-4      	; 0x692 <enc28j60PhyWrite+0x24>
     696:	8a ee       	ldi	r24, 0xEA	; 234
     698:	0e 94 06 03 	call	0x60c	; 0x60c <enc28j60Read>
     69c:	80 fd       	sbrc	r24, 0
     69e:	f8 cf       	rjmp	.-16     	; 0x690 <enc28j60PhyWrite+0x22>
                _delay_us(15);
        }
}
     6a0:	df 91       	pop	r29
     6a2:	cf 91       	pop	r28
     6a4:	08 95       	ret

000006a6 <enc28j60clkout>:

void enc28j60clkout(uint8_t clk)
{
        //setup clkout: 2 is 12.5MHz:
	enc28j60Write(ECOCON, clk & 0x7);
     6a6:	68 2f       	mov	r22, r24
     6a8:	67 70       	andi	r22, 0x07	; 7
     6aa:	85 e7       	ldi	r24, 0x75	; 117
     6ac:	0e 94 10 03 	call	0x620	; 0x620 <enc28j60Write>
     6b0:	08 95       	ret

000006b2 <enc28j60Init>:
}

void enc28j60Init(uint8_t* macaddr)
{
     6b2:	cf 93       	push	r28
     6b4:	df 93       	push	r29
     6b6:	ec 01       	movw	r28, r24
	// initialize I/O
	// ss as output:
	ENC28J60_CONTROL_DDR |= 1<<ENC28J60_CONTROL_CS;
     6b8:	bc 9a       	sbi	0x17, 4	; 23
	ENC_CS_PASSIVE; // ss=0
     6ba:	c4 9a       	sbi	0x18, 4	; 24
        //	
	ENC28J60_CONTROL_DDR  |= 1<<ENC28J60_CONTROL_SI | 1<<ENC28J60_CONTROL_SCK; // mosi, sck output
     6bc:	87 b3       	in	r24, 0x17	; 23
     6be:	80 6a       	ori	r24, 0xA0	; 160
     6c0:	87 bb       	out	0x17, r24	; 23
	cbi(ENC28J60_CONTROL_DDR,ENC28J60_CONTROL_SO); // MISO is input
     6c2:	be 98       	cbi	0x17, 6	; 23
	//
	cbi(ENC28J60_CONTROL_PORT,ENC28J60_CONTROL_SI); // MOSI low
     6c4:	c5 98       	cbi	0x18, 5	; 24
	cbi(ENC28J60_CONTROL_PORT,ENC28J60_CONTROL_SCK); // SCK low
     6c6:	c7 98       	cbi	0x18, 7	; 24
	//
	// initialize SPI interface
	// master mode and Fosc/2 clock:
        
		SPCR = (1<<SPE)|(1<<MSTR);
     6c8:	80 e5       	ldi	r24, 0x50	; 80
     6ca:	8d b9       	out	0x0d, r24	; 13
        SPSR |= (1<<SPI2X);
     6cc:	70 9a       	sbi	0x0e, 0	; 14
		SPCR = 0x52;
		SPSR = 0x00;
		DDRD |= 1<<3; //DD_SDCS*/
		/*!!!!!!!!!!!!!!!!!!!!!!!!!!!!!!!*/
	// perform system reset
	enc28j60WriteOp(ENC28J60_SOFT_RESET, 0, ENC28J60_SOFT_RESET);
     6ce:	4f ef       	ldi	r20, 0xFF	; 255
     6d0:	60 e0       	ldi	r22, 0x00	; 0
     6d2:	8f ef       	ldi	r24, 0xFF	; 255
     6d4:	0e 94 a9 02 	call	0x552	; 0x552 <enc28j60WriteOp>
    can be achieved.
*/
void
_delay_loop_1(uint8_t __count)
{
	__asm__ volatile (
     6d8:	8d ec       	ldi	r24, 0xCD	; 205
     6da:	8a 95       	dec	r24
     6dc:	f1 f7       	brne	.-4      	; 0x6da <enc28j60Init+0x28>
	//while(!(enc28j60Read(ESTAT) & ESTAT_CLKRDY));
	// do bank 0 stuff
	// initialize receive buffer
	// 16-bit transfers, must write low byte first
	// set receive buffer start address
	gNextPacketPtr = RXSTART_INIT;
     6de:	10 92 d4 00 	sts	0x00D4, r1
     6e2:	10 92 d3 00 	sts	0x00D3, r1
        // Rx start
	enc28j60Write(ERXSTL, RXSTART_INIT&0xFF);
     6e6:	60 e0       	ldi	r22, 0x00	; 0
     6e8:	88 e0       	ldi	r24, 0x08	; 8
     6ea:	0e 94 10 03 	call	0x620	; 0x620 <enc28j60Write>
	enc28j60Write(ERXSTH, RXSTART_INIT>>8);
     6ee:	60 e0       	ldi	r22, 0x00	; 0
     6f0:	89 e0       	ldi	r24, 0x09	; 9
     6f2:	0e 94 10 03 	call	0x620	; 0x620 <enc28j60Write>
	// set receive pointer address
	enc28j60Write(ERXRDPTL, RXSTART_INIT&0xFF);
     6f6:	60 e0       	ldi	r22, 0x00	; 0
     6f8:	8c e0       	ldi	r24, 0x0C	; 12
     6fa:	0e 94 10 03 	call	0x620	; 0x620 <enc28j60Write>
	enc28j60Write(ERXRDPTH, RXSTART_INIT>>8);
     6fe:	60 e0       	ldi	r22, 0x00	; 0
     700:	8d e0       	ldi	r24, 0x0D	; 13
     702:	0e 94 10 03 	call	0x620	; 0x620 <enc28j60Write>
	// RX end
	enc28j60Write(ERXNDL, RXSTOP_INIT&0xFF);
     706:	6e ef       	ldi	r22, 0xFE	; 254
     708:	8a e0       	ldi	r24, 0x0A	; 10
     70a:	0e 94 10 03 	call	0x620	; 0x620 <enc28j60Write>
	enc28j60Write(ERXNDH, RXSTOP_INIT>>8);
     70e:	69 e1       	ldi	r22, 0x19	; 25
     710:	8b e0       	ldi	r24, 0x0B	; 11
     712:	0e 94 10 03 	call	0x620	; 0x620 <enc28j60Write>
	// TX start
	enc28j60Write(ETXSTL, TXSTART_INIT&0xFF);
     716:	6f ef       	ldi	r22, 0xFF	; 255
     718:	84 e0       	ldi	r24, 0x04	; 4
     71a:	0e 94 10 03 	call	0x620	; 0x620 <enc28j60Write>
	enc28j60Write(ETXSTH, TXSTART_INIT>>8);
     71e:	69 e1       	ldi	r22, 0x19	; 25
     720:	85 e0       	ldi	r24, 0x05	; 5
     722:	0e 94 10 03 	call	0x620	; 0x620 <enc28j60Write>
	// TX end
	enc28j60Write(ETXNDL, TXSTOP_INIT&0xFF);
     726:	6f ef       	ldi	r22, 0xFF	; 255
     728:	86 e0       	ldi	r24, 0x06	; 6
     72a:	0e 94 10 03 	call	0x620	; 0x620 <enc28j60Write>
	enc28j60Write(ETXNDH, TXSTOP_INIT>>8);
     72e:	6f e1       	ldi	r22, 0x1F	; 31
     730:	87 e0       	ldi	r24, 0x07	; 7
     732:	0e 94 10 03 	call	0x620	; 0x620 <enc28j60Write>
        // Type     ETH.DST
        // ARP      BROADCAST
        // 06 08 -- ff ff ff ff ff ff -> ip checksum for theses bytes=f7f9
        // in binary these poitions are:11 0000 0011 1111
        // This is hex 303F->EPMM0=0x3f,EPMM1=0x30
	enc28j60Write(ERXFCON, ERXFCON_UCEN|ERXFCON_CRCEN|ERXFCON_PMEN);
     736:	60 eb       	ldi	r22, 0xB0	; 176
     738:	88 e3       	ldi	r24, 0x38	; 56
     73a:	0e 94 10 03 	call	0x620	; 0x620 <enc28j60Write>
	enc28j60Write(EPMM0, 0x3f);
     73e:	6f e3       	ldi	r22, 0x3F	; 63
     740:	88 e2       	ldi	r24, 0x28	; 40
     742:	0e 94 10 03 	call	0x620	; 0x620 <enc28j60Write>
	enc28j60Write(EPMM1, 0x30);
     746:	60 e3       	ldi	r22, 0x30	; 48
     748:	89 e2       	ldi	r24, 0x29	; 41
     74a:	0e 94 10 03 	call	0x620	; 0x620 <enc28j60Write>
	enc28j60Write(EPMCSL, 0xf9);
     74e:	69 ef       	ldi	r22, 0xF9	; 249
     750:	80 e3       	ldi	r24, 0x30	; 48
     752:	0e 94 10 03 	call	0x620	; 0x620 <enc28j60Write>
	enc28j60Write(EPMCSH, 0xf7);
     756:	67 ef       	ldi	r22, 0xF7	; 247
     758:	81 e3       	ldi	r24, 0x31	; 49
     75a:	0e 94 10 03 	call	0x620	; 0x620 <enc28j60Write>
        //
        //
	// do bank 2 stuff
	// enable MAC receive
	enc28j60Write(MACON1, MACON1_MARXEN|MACON1_TXPAUS|MACON1_RXPAUS);
     75e:	6d e0       	ldi	r22, 0x0D	; 13
     760:	80 ec       	ldi	r24, 0xC0	; 192
     762:	0e 94 10 03 	call	0x620	; 0x620 <enc28j60Write>
	// bring MAC out of reset
	enc28j60Write(MACON2, 0x00);
     766:	60 e0       	ldi	r22, 0x00	; 0
     768:	81 ec       	ldi	r24, 0xC1	; 193
     76a:	0e 94 10 03 	call	0x620	; 0x620 <enc28j60Write>
	// enable automatic padding to 60bytes and CRC operations
	enc28j60WriteOp(ENC28J60_BIT_FIELD_SET, MACON3, MACON3_PADCFG0|MACON3_TXCRCEN|MACON3_FRMLNEN);
     76e:	42 e3       	ldi	r20, 0x32	; 50
     770:	62 ec       	ldi	r22, 0xC2	; 194
     772:	80 e8       	ldi	r24, 0x80	; 128
     774:	0e 94 a9 02 	call	0x552	; 0x552 <enc28j60WriteOp>
	// set inter-frame gap (non-back-to-back)
	enc28j60Write(MAIPGL, 0x12);
     778:	62 e1       	ldi	r22, 0x12	; 18
     77a:	86 ec       	ldi	r24, 0xC6	; 198
     77c:	0e 94 10 03 	call	0x620	; 0x620 <enc28j60Write>
	enc28j60Write(MAIPGH, 0x0C);
     780:	6c e0       	ldi	r22, 0x0C	; 12
     782:	87 ec       	ldi	r24, 0xC7	; 199
     784:	0e 94 10 03 	call	0x620	; 0x620 <enc28j60Write>
	// set inter-frame gap (back-to-back)
	enc28j60Write(MABBIPG, 0x12);
     788:	62 e1       	ldi	r22, 0x12	; 18
     78a:	84 ec       	ldi	r24, 0xC4	; 196
     78c:	0e 94 10 03 	call	0x620	; 0x620 <enc28j60Write>
	// Set the maximum packet size which the controller will accept
        // Do not send packets longer than MAX_FRAMELEN:
	enc28j60Write(MAMXFLL, MAX_FRAMELEN&0xFF);	
     790:	6c ed       	ldi	r22, 0xDC	; 220
     792:	8a ec       	ldi	r24, 0xCA	; 202
     794:	0e 94 10 03 	call	0x620	; 0x620 <enc28j60Write>
	enc28j60Write(MAMXFLH, MAX_FRAMELEN>>8);
     798:	65 e0       	ldi	r22, 0x05	; 5
     79a:	8b ec       	ldi	r24, 0xCB	; 203
     79c:	0e 94 10 03 	call	0x620	; 0x620 <enc28j60Write>
	// do bank 3 stuff
        // write MAC address
        // NOTE: MAC address in ENC28J60 is byte-backward
        enc28j60Write(MAADR5, macaddr[0]);
     7a0:	68 81       	ld	r22, Y
     7a2:	84 ee       	ldi	r24, 0xE4	; 228
     7a4:	0e 94 10 03 	call	0x620	; 0x620 <enc28j60Write>
        enc28j60Write(MAADR4, macaddr[1]);
     7a8:	69 81       	ldd	r22, Y+1	; 0x01
     7aa:	85 ee       	ldi	r24, 0xE5	; 229
     7ac:	0e 94 10 03 	call	0x620	; 0x620 <enc28j60Write>
        enc28j60Write(MAADR3, macaddr[2]);
     7b0:	6a 81       	ldd	r22, Y+2	; 0x02
     7b2:	82 ee       	ldi	r24, 0xE2	; 226
     7b4:	0e 94 10 03 	call	0x620	; 0x620 <enc28j60Write>
        enc28j60Write(MAADR2, macaddr[3]);
     7b8:	6b 81       	ldd	r22, Y+3	; 0x03
     7ba:	83 ee       	ldi	r24, 0xE3	; 227
     7bc:	0e 94 10 03 	call	0x620	; 0x620 <enc28j60Write>
        enc28j60Write(MAADR1, macaddr[4]);
     7c0:	6c 81       	ldd	r22, Y+4	; 0x04
     7c2:	80 ee       	ldi	r24, 0xE0	; 224
     7c4:	0e 94 10 03 	call	0x620	; 0x620 <enc28j60Write>
        enc28j60Write(MAADR0, macaddr[5]);
     7c8:	6d 81       	ldd	r22, Y+5	; 0x05
     7ca:	81 ee       	ldi	r24, 0xE1	; 225
     7cc:	0e 94 10 03 	call	0x620	; 0x620 <enc28j60Write>
	// no loopback of transmitted frames
	enc28j60PhyWrite(PHCON2, PHCON2_HDLDIS);
     7d0:	60 e0       	ldi	r22, 0x00	; 0
     7d2:	71 e0       	ldi	r23, 0x01	; 1
     7d4:	80 e1       	ldi	r24, 0x10	; 16
     7d6:	0e 94 37 03 	call	0x66e	; 0x66e <enc28j60PhyWrite>
	// switch to bank 0
	enc28j60SetBank(ECON1);
     7da:	8f e1       	ldi	r24, 0x1F	; 31
     7dc:	0e 94 df 02 	call	0x5be	; 0x5be <enc28j60SetBank>
	// enable interrutps
	enc28j60WriteOp(ENC28J60_BIT_FIELD_SET, EIE, EIE_INTIE|EIE_PKTIE);
     7e0:	40 ec       	ldi	r20, 0xC0	; 192
     7e2:	6b e1       	ldi	r22, 0x1B	; 27
     7e4:	80 e8       	ldi	r24, 0x80	; 128
     7e6:	0e 94 a9 02 	call	0x552	; 0x552 <enc28j60WriteOp>
	// enable packet reception
	enc28j60WriteOp(ENC28J60_BIT_FIELD_SET, ECON1, ECON1_RXEN);
     7ea:	44 e0       	ldi	r20, 0x04	; 4
     7ec:	6f e1       	ldi	r22, 0x1F	; 31
     7ee:	80 e8       	ldi	r24, 0x80	; 128
     7f0:	0e 94 a9 02 	call	0x552	; 0x552 <enc28j60WriteOp>
}
     7f4:	df 91       	pop	r29
     7f6:	cf 91       	pop	r28
     7f8:	08 95       	ret

000007fa <enc28j60linkup>:

// link status
uint8_t enc28j60linkup(void)
{
        // bit 10 (= bit 3 in upper reg)
	return(enc28j60PhyReadH(PHSTAT2) && 4);
     7fa:	81 e1       	ldi	r24, 0x11	; 17
     7fc:	0e 94 1e 03 	call	0x63c	; 0x63c <enc28j60PhyReadH>
     800:	21 e0       	ldi	r18, 0x01	; 1
     802:	89 2b       	or	r24, r25
     804:	09 f4       	brne	.+2      	; 0x808 <enc28j60linkup+0xe>
     806:	20 e0       	ldi	r18, 0x00	; 0
}
     808:	82 2f       	mov	r24, r18
     80a:	08 95       	ret

0000080c <enc28j60PacketSend>:

void enc28j60PacketSend(uint16_t len, uint8_t* packet)
{
     80c:	0f 93       	push	r16
     80e:	1f 93       	push	r17
     810:	cf 93       	push	r28
     812:	df 93       	push	r29
     814:	ec 01       	movw	r28, r24
     816:	8b 01       	movw	r16, r22
        // Check no transmit in progress
        while (enc28j60ReadOp(ENC28J60_READ_CTRL_REG, ECON1) & ECON1_TXRTS)
     818:	0f c0       	rjmp	.+30     	; 0x838 <enc28j60PacketSend+0x2c>
        {
                // Reset the transmit logic problem. See Rev. B4 Silicon Errata point 12.
                if( (enc28j60Read(EIR) & EIR_TXERIF) ) {
     81a:	8c e1       	ldi	r24, 0x1C	; 28
     81c:	0e 94 06 03 	call	0x60c	; 0x60c <enc28j60Read>
     820:	81 ff       	sbrs	r24, 1
     822:	0a c0       	rjmp	.+20     	; 0x838 <enc28j60PacketSend+0x2c>
                        enc28j60WriteOp(ENC28J60_BIT_FIELD_SET, ECON1, ECON1_TXRST);
     824:	40 e8       	ldi	r20, 0x80	; 128
     826:	6f e1       	ldi	r22, 0x1F	; 31
     828:	80 e8       	ldi	r24, 0x80	; 128
     82a:	0e 94 a9 02 	call	0x552	; 0x552 <enc28j60WriteOp>
                        enc28j60WriteOp(ENC28J60_BIT_FIELD_CLR, ECON1, ECON1_TXRST);
     82e:	40 e8       	ldi	r20, 0x80	; 128
     830:	6f e1       	ldi	r22, 0x1F	; 31
     832:	80 ea       	ldi	r24, 0xA0	; 160
     834:	0e 94 a9 02 	call	0x552	; 0x552 <enc28j60WriteOp>
}

void enc28j60PacketSend(uint16_t len, uint8_t* packet)
{
        // Check no transmit in progress
        while (enc28j60ReadOp(ENC28J60_READ_CTRL_REG, ECON1) & ECON1_TXRTS)
     838:	6f e1       	ldi	r22, 0x1F	; 31
     83a:	80 e0       	ldi	r24, 0x00	; 0
     83c:	0e 94 97 02 	call	0x52e	; 0x52e <enc28j60ReadOp>
     840:	83 fd       	sbrc	r24, 3
     842:	eb cf       	rjmp	.-42     	; 0x81a <enc28j60PacketSend+0xe>
                        enc28j60WriteOp(ENC28J60_BIT_FIELD_SET, ECON1, ECON1_TXRST);
                        enc28j60WriteOp(ENC28J60_BIT_FIELD_CLR, ECON1, ECON1_TXRST);
                }
        }
	// Set the write pointer to start of transmit buffer area
	enc28j60Write(EWRPTL, TXSTART_INIT&0xFF);
     844:	6f ef       	ldi	r22, 0xFF	; 255
     846:	82 e0       	ldi	r24, 0x02	; 2
     848:	0e 94 10 03 	call	0x620	; 0x620 <enc28j60Write>
	enc28j60Write(EWRPTH, TXSTART_INIT>>8);
     84c:	69 e1       	ldi	r22, 0x19	; 25
     84e:	83 e0       	ldi	r24, 0x03	; 3
     850:	0e 94 10 03 	call	0x620	; 0x620 <enc28j60Write>
	// Set the TXND pointer to correspond to the packet size given
	enc28j60Write(ETXNDL, (TXSTART_INIT+len)&0xFF);
     854:	6c 2f       	mov	r22, r28
     856:	61 50       	subi	r22, 0x01	; 1
     858:	86 e0       	ldi	r24, 0x06	; 6
     85a:	0e 94 10 03 	call	0x620	; 0x620 <enc28j60Write>
	enc28j60Write(ETXNDH, (TXSTART_INIT+len)>>8);
     85e:	ce 01       	movw	r24, r28
     860:	81 50       	subi	r24, 0x01	; 1
     862:	96 4e       	sbci	r25, 0xE6	; 230
     864:	69 2f       	mov	r22, r25
     866:	87 e0       	ldi	r24, 0x07	; 7
     868:	0e 94 10 03 	call	0x620	; 0x620 <enc28j60Write>
	// write per-packet control byte (0x00 means use macon3 settings)
	enc28j60WriteOp(ENC28J60_WRITE_BUF_MEM, 0, 0x00);
     86c:	40 e0       	ldi	r20, 0x00	; 0
     86e:	60 e0       	ldi	r22, 0x00	; 0
     870:	8a e7       	ldi	r24, 0x7A	; 122
     872:	0e 94 a9 02 	call	0x552	; 0x552 <enc28j60WriteOp>
	// copy the packet into the transmit buffer
	enc28j60WriteBuffer(len, packet);
     876:	b8 01       	movw	r22, r16
     878:	ce 01       	movw	r24, r28
     87a:	0e 94 c9 02 	call	0x592	; 0x592 <enc28j60WriteBuffer>
	// send the contents of the transmit buffer onto the network
	enc28j60WriteOp(ENC28J60_BIT_FIELD_SET, ECON1, ECON1_TXRTS);
     87e:	48 e0       	ldi	r20, 0x08	; 8
     880:	6f e1       	ldi	r22, 0x1F	; 31
     882:	80 e8       	ldi	r24, 0x80	; 128
     884:	0e 94 a9 02 	call	0x552	; 0x552 <enc28j60WriteOp>
}
     888:	df 91       	pop	r29
     88a:	cf 91       	pop	r28
     88c:	1f 91       	pop	r17
     88e:	0f 91       	pop	r16
     890:	08 95       	ret

00000892 <enc28j60PacketReceive>:
// The packet will by headed by an ethernet header.
//      maxlen  The maximum acceptable length of a retrieved packet.
//      packet  Pointer where packet data should be stored.
// Returns: Packet length in bytes if a packet was retrieved, zero otherwise.
uint16_t enc28j60PacketReceive(uint16_t maxlen, uint8_t* packet)
{
     892:	af 92       	push	r10
     894:	bf 92       	push	r11
     896:	cf 92       	push	r12
     898:	df 92       	push	r13
     89a:	ef 92       	push	r14
     89c:	ff 92       	push	r15
     89e:	0f 93       	push	r16
     8a0:	1f 93       	push	r17
     8a2:	cf 93       	push	r28
     8a4:	df 93       	push	r29
     8a6:	ec 01       	movw	r28, r24
     8a8:	7b 01       	movw	r14, r22
	uint16_t rxstat;
	uint16_t len;
	// check if a packet has been received and buffered
	//if( !(enc28j60Read(EIR) & EIR_PKTIF) ){
        // The above does not work. See Rev. B4 Silicon Errata point 6.
	if( enc28j60Read(EPKTCNT) ==0 ){
     8aa:	89 e3       	ldi	r24, 0x39	; 57
     8ac:	0e 94 06 03 	call	0x60c	; 0x60c <enc28j60Read>
     8b0:	88 23       	and	r24, r24
     8b2:	09 f4       	brne	.+2      	; 0x8b6 <enc28j60PacketReceive+0x24>
     8b4:	6f c0       	rjmp	.+222    	; 0x994 <enc28j60PacketReceive+0x102>
		return(0);
        }

	// Set the read pointer to the start of the received packet
	enc28j60Write(ERDPTL, (gNextPacketPtr &0xFF));
     8b6:	60 91 d3 00 	lds	r22, 0x00D3
     8ba:	10 91 d4 00 	lds	r17, 0x00D4
     8be:	80 e0       	ldi	r24, 0x00	; 0
     8c0:	0e 94 10 03 	call	0x620	; 0x620 <enc28j60Write>
	enc28j60Write(ERDPTH, (gNextPacketPtr)>>8);
     8c4:	61 2f       	mov	r22, r17
     8c6:	81 e0       	ldi	r24, 0x01	; 1
     8c8:	0e 94 10 03 	call	0x620	; 0x620 <enc28j60Write>
	// read the next packet pointer
	gNextPacketPtr  = enc28j60ReadOp(ENC28J60_READ_BUF_MEM, 0);
     8cc:	60 e0       	ldi	r22, 0x00	; 0
     8ce:	8a e3       	ldi	r24, 0x3A	; 58
     8d0:	0e 94 97 02 	call	0x52e	; 0x52e <enc28j60ReadOp>
     8d4:	d8 2e       	mov	r13, r24
	gNextPacketPtr |= enc28j60ReadOp(ENC28J60_READ_BUF_MEM, 0)<<8;
     8d6:	60 e0       	ldi	r22, 0x00	; 0
     8d8:	8a e3       	ldi	r24, 0x3A	; 58
     8da:	0e 94 97 02 	call	0x52e	; 0x52e <enc28j60ReadOp>
     8de:	18 2f       	mov	r17, r24
     8e0:	00 e0       	ldi	r16, 0x00	; 0
     8e2:	0d 29       	or	r16, r13
     8e4:	10 93 d4 00 	sts	0x00D4, r17
     8e8:	00 93 d3 00 	sts	0x00D3, r16
	// read the packet length (see datasheet page 43)
	len  = enc28j60ReadOp(ENC28J60_READ_BUF_MEM, 0);
     8ec:	60 e0       	ldi	r22, 0x00	; 0
     8ee:	8a e3       	ldi	r24, 0x3A	; 58
     8f0:	0e 94 97 02 	call	0x52e	; 0x52e <enc28j60ReadOp>
     8f4:	b8 2e       	mov	r11, r24
	len |= enc28j60ReadOp(ENC28J60_READ_BUF_MEM, 0)<<8;
     8f6:	60 e0       	ldi	r22, 0x00	; 0
     8f8:	8a e3       	ldi	r24, 0x3A	; 58
     8fa:	0e 94 97 02 	call	0x52e	; 0x52e <enc28j60ReadOp>
     8fe:	a8 2e       	mov	r10, r24
        len-=4; //remove the CRC count
	// read the receive status (see datasheet page 43)
	rxstat  = enc28j60ReadOp(ENC28J60_READ_BUF_MEM, 0);
     900:	60 e0       	ldi	r22, 0x00	; 0
     902:	8a e3       	ldi	r24, 0x3A	; 58
     904:	0e 94 97 02 	call	0x52e	; 0x52e <enc28j60ReadOp>
     908:	c8 2e       	mov	r12, r24
     90a:	d1 2c       	mov	r13, r1
	rxstat |= ((uint16_t)enc28j60ReadOp(ENC28J60_READ_BUF_MEM, 0))<<8;
     90c:	60 e0       	ldi	r22, 0x00	; 0
     90e:	8a e3       	ldi	r24, 0x3A	; 58
     910:	0e 94 97 02 	call	0x52e	; 0x52e <enc28j60ReadOp>
     914:	38 2f       	mov	r19, r24
     916:	20 e0       	ldi	r18, 0x00	; 0
     918:	2c 29       	or	r18, r12
     91a:	3d 29       	or	r19, r13
                len=maxlen-1;
        }
        // check CRC and symbol errors (see datasheet page 44, table 7-3):
        // The ERXFCON.CRCEN is set by default. Normally we should not
        // need to check this.
        if ((rxstat & 0x80)==0){
     91c:	27 ff       	sbrs	r18, 7
     91e:	11 c0       	rjmp	.+34     	; 0x942 <enc28j60PacketReceive+0xb0>
        len-=4; //remove the CRC count
	// read the receive status (see datasheet page 43)
	rxstat  = enc28j60ReadOp(ENC28J60_READ_BUF_MEM, 0);
	rxstat |= ((uint16_t)enc28j60ReadOp(ENC28J60_READ_BUF_MEM, 0))<<8;
	// limit retrieve length
        if (len>maxlen-1){
     920:	ae 01       	movw	r20, r28
     922:	41 50       	subi	r20, 0x01	; 1
     924:	51 09       	sbc	r21, r1
	// read the next packet pointer
	gNextPacketPtr  = enc28j60ReadOp(ENC28J60_READ_BUF_MEM, 0);
	gNextPacketPtr |= enc28j60ReadOp(ENC28J60_READ_BUF_MEM, 0)<<8;
	// read the packet length (see datasheet page 43)
	len  = enc28j60ReadOp(ENC28J60_READ_BUF_MEM, 0);
	len |= enc28j60ReadOp(ENC28J60_READ_BUF_MEM, 0)<<8;
     926:	3a 2d       	mov	r19, r10
     928:	20 e0       	ldi	r18, 0x00	; 0
     92a:	e9 01       	movw	r28, r18
     92c:	cb 29       	or	r28, r11
     92e:	24 97       	sbiw	r28, 0x04	; 4
     930:	4c 17       	cp	r20, r28
     932:	5d 07       	cpc	r21, r29
     934:	08 f4       	brcc	.+2      	; 0x938 <enc28j60PacketReceive+0xa6>
     936:	ea 01       	movw	r28, r20
        if ((rxstat & 0x80)==0){
                // invalid
                len=0;
        }else{
                // copy the packet from the receive buffer
                enc28j60ReadBuffer(len, packet);
     938:	b7 01       	movw	r22, r14
     93a:	ce 01       	movw	r24, r28
     93c:	0e 94 b4 02 	call	0x568	; 0x568 <enc28j60ReadBuffer>
     940:	02 c0       	rjmp	.+4      	; 0x946 <enc28j60PacketReceive+0xb4>
        // check CRC and symbol errors (see datasheet page 44, table 7-3):
        // The ERXFCON.CRCEN is set by default. Normally we should not
        // need to check this.
        if ((rxstat & 0x80)==0){
                // invalid
                len=0;
     942:	c0 e0       	ldi	r28, 0x00	; 0
     944:	d0 e0       	ldi	r29, 0x00	; 0
                // copy the packet from the receive buffer
                enc28j60ReadBuffer(len, packet);
        }
	// Move the RX read pointer to the start of the next received packet
	// This frees the memory we just read out
	enc28j60Write(ERXRDPTL, (gNextPacketPtr &0xFF));
     946:	f0 2e       	mov	r15, r16
     948:	60 2f       	mov	r22, r16
     94a:	8c e0       	ldi	r24, 0x0C	; 12
     94c:	0e 94 10 03 	call	0x620	; 0x620 <enc28j60Write>
	enc28j60Write(ERXRDPTH, (gNextPacketPtr)>>8);
     950:	61 2f       	mov	r22, r17
     952:	8d e0       	ldi	r24, 0x0D	; 13
     954:	0e 94 10 03 	call	0x620	; 0x620 <enc28j60Write>
        // Move the RX read pointer to the start of the next received packet
        // This frees the memory we just read out.
        // However, compensate for the errata point 13, rev B4: enver write an even address!
        if ((gNextPacketPtr - 1 < RXSTART_INIT)
                || (gNextPacketPtr -1 > RXSTOP_INIT)) {
     958:	01 50       	subi	r16, 0x01	; 1
     95a:	11 09       	sbc	r17, r1
	enc28j60Write(ERXRDPTL, (gNextPacketPtr &0xFF));
	enc28j60Write(ERXRDPTH, (gNextPacketPtr)>>8);
        // Move the RX read pointer to the start of the next received packet
        // This frees the memory we just read out.
        // However, compensate for the errata point 13, rev B4: enver write an even address!
        if ((gNextPacketPtr - 1 < RXSTART_INIT)
     95c:	0f 3f       	cpi	r16, 0xFF	; 255
     95e:	89 e1       	ldi	r24, 0x19	; 25
     960:	18 07       	cpc	r17, r24
     962:	48 f0       	brcs	.+18     	; 0x976 <enc28j60PacketReceive+0xe4>
                || (gNextPacketPtr -1 > RXSTOP_INIT)) {
                enc28j60Write(ERXRDPTL, (RXSTOP_INIT)&0xFF);
     964:	6e ef       	ldi	r22, 0xFE	; 254
     966:	8c e0       	ldi	r24, 0x0C	; 12
     968:	0e 94 10 03 	call	0x620	; 0x620 <enc28j60Write>
                enc28j60Write(ERXRDPTH, (RXSTOP_INIT)>>8);
     96c:	69 e1       	ldi	r22, 0x19	; 25
     96e:	8d e0       	ldi	r24, 0x0D	; 13
     970:	0e 94 10 03 	call	0x620	; 0x620 <enc28j60Write>
     974:	09 c0       	rjmp	.+18     	; 0x988 <enc28j60PacketReceive+0xf6>
        } else {
                enc28j60Write(ERXRDPTL, (gNextPacketPtr-1)&0xFF);
     976:	6f 2d       	mov	r22, r15
     978:	61 50       	subi	r22, 0x01	; 1
     97a:	8c e0       	ldi	r24, 0x0C	; 12
     97c:	0e 94 10 03 	call	0x620	; 0x620 <enc28j60Write>
                enc28j60Write(ERXRDPTH, (gNextPacketPtr-1)>>8);
     980:	61 2f       	mov	r22, r17
     982:	8d e0       	ldi	r24, 0x0D	; 13
     984:	0e 94 10 03 	call	0x620	; 0x620 <enc28j60Write>
        }
	// decrement the packet counter indicate we are done with this packet
	enc28j60WriteOp(ENC28J60_BIT_FIELD_SET, ECON2, ECON2_PKTDEC);
     988:	40 e4       	ldi	r20, 0x40	; 64
     98a:	6e e1       	ldi	r22, 0x1E	; 30
     98c:	80 e8       	ldi	r24, 0x80	; 128
     98e:	0e 94 a9 02 	call	0x552	; 0x552 <enc28j60WriteOp>
	return(len);
     992:	02 c0       	rjmp	.+4      	; 0x998 <enc28j60PacketReceive+0x106>
	uint16_t len;
	// check if a packet has been received and buffered
	//if( !(enc28j60Read(EIR) & EIR_PKTIF) ){
        // The above does not work. See Rev. B4 Silicon Errata point 6.
	if( enc28j60Read(EPKTCNT) ==0 ){
		return(0);
     994:	c0 e0       	ldi	r28, 0x00	; 0
     996:	d0 e0       	ldi	r29, 0x00	; 0
                enc28j60Write(ERXRDPTH, (gNextPacketPtr-1)>>8);
        }
	// decrement the packet counter indicate we are done with this packet
	enc28j60WriteOp(ENC28J60_BIT_FIELD_SET, ECON2, ECON2_PKTDEC);
	return(len);
}
     998:	8c 2f       	mov	r24, r28
     99a:	9d 2f       	mov	r25, r29
     99c:	df 91       	pop	r29
     99e:	cf 91       	pop	r28
     9a0:	1f 91       	pop	r17
     9a2:	0f 91       	pop	r16
     9a4:	ff 90       	pop	r15
     9a6:	ef 90       	pop	r14
     9a8:	df 90       	pop	r13
     9aa:	cf 90       	pop	r12
     9ac:	bf 90       	pop	r11
     9ae:	af 90       	pop	r10
     9b0:	08 95       	ret

000009b2 <getFirstSector>:
//Function: to calculate first sector address of any given cluster
//Arguments: cluster number for which first sector is to be found
//return: first sector address
//***************************************************************************
unsigned long getFirstSector(unsigned long clusterNumber)
{
     9b2:	cf 92       	push	r12
     9b4:	df 92       	push	r13
     9b6:	ef 92       	push	r14
     9b8:	ff 92       	push	r15
     9ba:	0f 93       	push	r16
     9bc:	1f 93       	push	r17
  return (((clusterNumber - 2) * sectorPerCluster) + firstDataSector);
     9be:	a0 91 36 05 	lds	r26, 0x0536
     9c2:	b0 91 37 05 	lds	r27, 0x0537
     9c6:	c0 90 1e 03 	lds	r12, 0x031E
     9ca:	d0 90 1f 03 	lds	r13, 0x031F
     9ce:	e0 90 20 03 	lds	r14, 0x0320
     9d2:	f0 90 21 03 	lds	r15, 0x0321
     9d6:	9b 01       	movw	r18, r22
     9d8:	ac 01       	movw	r20, r24
     9da:	22 50       	subi	r18, 0x02	; 2
     9dc:	31 09       	sbc	r19, r1
     9de:	41 09       	sbc	r20, r1
     9e0:	51 09       	sbc	r21, r1
     9e2:	0e 94 4f 18 	call	0x309e	; 0x309e <__muluhisi3>
     9e6:	8b 01       	movw	r16, r22
     9e8:	9c 01       	movw	r18, r24
     9ea:	0c 0d       	add	r16, r12
     9ec:	1d 1d       	adc	r17, r13
     9ee:	2e 1d       	adc	r18, r14
     9f0:	3f 1d       	adc	r19, r15
}
     9f2:	60 2f       	mov	r22, r16
     9f4:	71 2f       	mov	r23, r17
     9f6:	82 2f       	mov	r24, r18
     9f8:	93 2f       	mov	r25, r19
     9fa:	1f 91       	pop	r17
     9fc:	0f 91       	pop	r16
     9fe:	ff 90       	pop	r15
     a00:	ef 90       	pop	r14
     a02:	df 90       	pop	r13
     a04:	cf 90       	pop	r12
     a06:	08 95       	ret

00000a08 <getSetNextCluster>:
//return: next cluster number, if if argument#2 = GET, else 0
//****************************************************************************
unsigned long getSetNextCluster (unsigned long clusterNumber,
                                 unsigned char get_set,
                                 unsigned long clusterEntry)
{
     a08:	3f 92       	push	r3
     a0a:	4f 92       	push	r4
     a0c:	5f 92       	push	r5
     a0e:	6f 92       	push	r6
     a10:	7f 92       	push	r7
     a12:	8f 92       	push	r8
     a14:	9f 92       	push	r9
     a16:	af 92       	push	r10
     a18:	bf 92       	push	r11
     a1a:	cf 92       	push	r12
     a1c:	df 92       	push	r13
     a1e:	ef 92       	push	r14
     a20:	ff 92       	push	r15
     a22:	0f 93       	push	r16
     a24:	1f 93       	push	r17
     a26:	cf 93       	push	r28
     a28:	df 93       	push	r29
     a2a:	34 2e       	mov	r3, r20
     a2c:	28 01       	movw	r4, r16
     a2e:	39 01       	movw	r6, r18
unsigned long *FATEntryValue;
unsigned long FATEntrySector;
unsigned char retry = 0;

//get sector number of the cluster entry in the FAT
FATEntrySector = unusedSectors + reservedSectorCount + ((clusterNumber * 4) / bytesPerSector) ;
     a30:	40 91 41 05 	lds	r20, 0x0541
     a34:	50 91 42 05 	lds	r21, 0x0542
     a38:	4b 01       	movw	r8, r22
     a3a:	5c 01       	movw	r10, r24
     a3c:	88 0c       	add	r8, r8
     a3e:	99 1c       	adc	r9, r9
     a40:	aa 1c       	adc	r10, r10
     a42:	bb 1c       	adc	r11, r11
     a44:	88 0c       	add	r8, r8
     a46:	99 1c       	adc	r9, r9
     a48:	aa 1c       	adc	r10, r10
     a4a:	bb 1c       	adc	r11, r11
     a4c:	20 91 26 03 	lds	r18, 0x0326
     a50:	30 91 27 03 	lds	r19, 0x0327
     a54:	c0 90 38 05 	lds	r12, 0x0538
     a58:	d0 90 39 05 	lds	r13, 0x0539
     a5c:	e0 90 3a 05 	lds	r14, 0x053A
     a60:	f0 90 3b 05 	lds	r15, 0x053B
     a64:	c4 0e       	add	r12, r20
     a66:	d5 1e       	adc	r13, r21
     a68:	e1 1c       	adc	r14, r1
     a6a:	f1 1c       	adc	r15, r1
     a6c:	40 e0       	ldi	r20, 0x00	; 0
     a6e:	50 e0       	ldi	r21, 0x00	; 0
     a70:	c5 01       	movw	r24, r10
     a72:	b4 01       	movw	r22, r8
     a74:	0e 94 21 18 	call	0x3042	; 0x3042 <__udivmodsi4>
     a78:	c2 0e       	add	r12, r18
     a7a:	d3 1e       	adc	r13, r19
     a7c:	e4 1e       	adc	r14, r20
     a7e:	f5 1e       	adc	r15, r21

//get the offset address in that sector number
FATEntryOffset = (unsigned int) ((clusterNumber * 4) % bytesPerSector);
     a80:	20 91 26 03 	lds	r18, 0x0326
     a84:	30 91 27 03 	lds	r19, 0x0327
     a88:	40 e0       	ldi	r20, 0x00	; 0
     a8a:	50 e0       	ldi	r21, 0x00	; 0
     a8c:	c5 01       	movw	r24, r10
     a8e:	b4 01       	movw	r22, r8
     a90:	0e 94 21 18 	call	0x3042	; 0x3042 <__udivmodsi4>
     a94:	eb 01       	movw	r28, r22
     a96:	1a e0       	ldi	r17, 0x0A	; 10

//read the sector into a buffer
while(retry <10)
{ if(!SD_readSingleBlock(FATEntrySector)) break; retry++;}
     a98:	c7 01       	movw	r24, r14
     a9a:	b6 01       	movw	r22, r12
     a9c:	0e 94 0d 17 	call	0x2e1a	; 0x2e1a <SD_readSingleBlock>
     aa0:	88 23       	and	r24, r24
     aa2:	11 f0       	breq	.+4      	; 0xaa8 <getSetNextCluster+0xa0>
     aa4:	11 50       	subi	r17, 0x01	; 1

//get the offset address in that sector number
FATEntryOffset = (unsigned int) ((clusterNumber * 4) % bytesPerSector);

//read the sector into a buffer
while(retry <10)
     aa6:	c1 f7       	brne	.-16     	; 0xa98 <getSetNextCluster+0x90>
{ if(!SD_readSingleBlock(FATEntrySector)) break; retry++;}

//get the cluster address from the buffer
FATEntryValue = (unsigned long *) &buffer[FATEntryOffset];
     aa8:	ca 5c       	subi	r28, 0xCA	; 202
     aaa:	dc 4f       	sbci	r29, 0xFC	; 252

if(get_set == GET)
     aac:	31 10       	cpse	r3, r1
     aae:	07 c0       	rjmp	.+14     	; 0xabe <getSetNextCluster+0xb6>
  return ((*FATEntryValue) & 0x0fffffff);
     ab0:	c8 80       	ld	r12, Y
     ab2:	d9 80       	ldd	r13, Y+1	; 0x01
     ab4:	ea 80       	ldd	r14, Y+2	; 0x02
     ab6:	fb 80       	ldd	r15, Y+3	; 0x03
     ab8:	8f e0       	ldi	r24, 0x0F	; 15
     aba:	f8 22       	and	r15, r24
     abc:	0b c0       	rjmp	.+22     	; 0xad4 <getSetNextCluster+0xcc>


*FATEntryValue = clusterEntry;   //for setting new value in cluster entry in FAT
     abe:	48 82       	st	Y, r4
     ac0:	59 82       	std	Y+1, r5	; 0x01
     ac2:	6a 82       	std	Y+2, r6	; 0x02
     ac4:	7b 82       	std	Y+3, r7	; 0x03

SD_writeSingleBlock(FATEntrySector);
     ac6:	c7 01       	movw	r24, r14
     ac8:	b6 01       	movw	r22, r12
     aca:	0e 94 3e 17 	call	0x2e7c	; 0x2e7c <SD_writeSingleBlock>

return (0);
     ace:	c1 2c       	mov	r12, r1
     ad0:	d1 2c       	mov	r13, r1
     ad2:	76 01       	movw	r14, r12
}
     ad4:	6c 2d       	mov	r22, r12
     ad6:	7d 2d       	mov	r23, r13
     ad8:	8e 2d       	mov	r24, r14
     ada:	9f 2d       	mov	r25, r15
     adc:	df 91       	pop	r29
     ade:	cf 91       	pop	r28
     ae0:	1f 91       	pop	r17
     ae2:	0f 91       	pop	r16
     ae4:	ff 90       	pop	r15
     ae6:	ef 90       	pop	r14
     ae8:	df 90       	pop	r13
     aea:	cf 90       	pop	r12
     aec:	bf 90       	pop	r11
     aee:	af 90       	pop	r10
     af0:	9f 90       	pop	r9
     af2:	8f 90       	pop	r8
     af4:	7f 90       	pop	r7
     af6:	6f 90       	pop	r6
     af8:	5f 90       	pop	r5
     afa:	4f 90       	pop	r4
     afc:	3f 90       	pop	r3
     afe:	08 95       	ret

00000b00 <getSetFreeCluster>:
//return: next free cluster, if arg1 is NEXT_FREE & arg2 is GET
//        total number of free clusters, if arg1 is TOTAL_FREE & arg2 is GET
//		  0xffffffff, if any error or if arg2 is SET
//********************************************************************************************
unsigned long getSetFreeCluster(unsigned char totOrNext, unsigned char get_set, unsigned long FSEntry)
{
     b00:	cf 92       	push	r12
     b02:	df 92       	push	r13
     b04:	ef 92       	push	r14
     b06:	ff 92       	push	r15
     b08:	0f 93       	push	r16
     b0a:	1f 93       	push	r17
     b0c:	08 2f       	mov	r16, r24
     b0e:	16 2f       	mov	r17, r22
     b10:	69 01       	movw	r12, r18
     b12:	7a 01       	movw	r14, r20
struct FSInfo_Structure *FS = (struct FSInfo_Structure *) &buffer;
unsigned char error;

SD_readSingleBlock(unusedSectors + 1);
     b14:	80 91 38 05 	lds	r24, 0x0538
     b18:	90 91 39 05 	lds	r25, 0x0539
     b1c:	a0 91 3a 05 	lds	r26, 0x053A
     b20:	b0 91 3b 05 	lds	r27, 0x053B
     b24:	bc 01       	movw	r22, r24
     b26:	cd 01       	movw	r24, r26
     b28:	6f 5f       	subi	r22, 0xFF	; 255
     b2a:	7f 4f       	sbci	r23, 0xFF	; 255
     b2c:	8f 4f       	sbci	r24, 0xFF	; 255
     b2e:	9f 4f       	sbci	r25, 0xFF	; 255
     b30:	0e 94 0d 17 	call	0x2e1a	; 0x2e1a <SD_readSingleBlock>

if((FS->leadSignature != 0x41615252) || (FS->structureSignature != 0x61417272) || (FS->trailSignature !=0xaa550000))
     b34:	40 91 36 03 	lds	r20, 0x0336
     b38:	50 91 37 03 	lds	r21, 0x0337
     b3c:	60 91 38 03 	lds	r22, 0x0338
     b40:	70 91 39 03 	lds	r23, 0x0339
     b44:	42 35       	cpi	r20, 0x52	; 82
     b46:	52 45       	sbci	r21, 0x52	; 82
     b48:	61 46       	sbci	r22, 0x61	; 97
     b4a:	71 44       	sbci	r23, 0x41	; 65
     b4c:	09 f0       	breq	.+2      	; 0xb50 <getSetFreeCluster+0x50>
     b4e:	58 c0       	rjmp	.+176    	; 0xc00 <getSetFreeCluster+0x100>
     b50:	80 91 1a 05 	lds	r24, 0x051A
     b54:	90 91 1b 05 	lds	r25, 0x051B
     b58:	a0 91 1c 05 	lds	r26, 0x051C
     b5c:	b0 91 1d 05 	lds	r27, 0x051D
     b60:	82 37       	cpi	r24, 0x72	; 114
     b62:	92 47       	sbci	r25, 0x72	; 114
     b64:	a1 44       	sbci	r26, 0x41	; 65
     b66:	b1 46       	sbci	r27, 0x61	; 97
     b68:	09 f0       	breq	.+2      	; 0xb6c <getSetFreeCluster+0x6c>
     b6a:	4e c0       	rjmp	.+156    	; 0xc08 <getSetFreeCluster+0x108>
     b6c:	80 91 32 05 	lds	r24, 0x0532
     b70:	90 91 33 05 	lds	r25, 0x0533
     b74:	a0 91 34 05 	lds	r26, 0x0534
     b78:	b0 91 35 05 	lds	r27, 0x0535
     b7c:	00 97       	sbiw	r24, 0x00	; 0
     b7e:	a5 45       	sbci	r26, 0x55	; 85
     b80:	ba 4a       	sbci	r27, 0xAA	; 170
     b82:	09 f0       	breq	.+2      	; 0xb86 <getSetFreeCluster+0x86>
     b84:	45 c0       	rjmp	.+138    	; 0xc10 <getSetFreeCluster+0x110>
  return 0xffffffff;

 if(get_set == GET)
     b86:	11 11       	cpse	r17, r1
     b88:	14 c0       	rjmp	.+40     	; 0xbb2 <getSetFreeCluster+0xb2>
 {
   if(totOrNext == TOTAL_FREE)
     b8a:	01 30       	cpi	r16, 0x01	; 1
     b8c:	49 f4       	brne	.+18     	; 0xba0 <getSetFreeCluster+0xa0>
      return(FS->freeClusterCount);
     b8e:	00 91 1e 05 	lds	r16, 0x051E
     b92:	10 91 1f 05 	lds	r17, 0x051F
     b96:	20 91 20 05 	lds	r18, 0x0520
     b9a:	30 91 21 05 	lds	r19, 0x0521
     b9e:	3b c0       	rjmp	.+118    	; 0xc16 <getSetFreeCluster+0x116>
   else // when totOrNext = NEXT_FREE
      return(FS->nextFreeCluster);
     ba0:	00 91 22 05 	lds	r16, 0x0522
     ba4:	10 91 23 05 	lds	r17, 0x0523
     ba8:	20 91 24 05 	lds	r18, 0x0524
     bac:	30 91 25 05 	lds	r19, 0x0525
     bb0:	32 c0       	rjmp	.+100    	; 0xc16 <getSetFreeCluster+0x116>
 }
 else
 {
   if(totOrNext == TOTAL_FREE)
     bb2:	01 30       	cpi	r16, 0x01	; 1
     bb4:	49 f4       	brne	.+18     	; 0xbc8 <getSetFreeCluster+0xc8>
      FS->freeClusterCount = FSEntry;
     bb6:	c0 92 1e 05 	sts	0x051E, r12
     bba:	d0 92 1f 05 	sts	0x051F, r13
     bbe:	e0 92 20 05 	sts	0x0520, r14
     bc2:	f0 92 21 05 	sts	0x0521, r15
     bc6:	08 c0       	rjmp	.+16     	; 0xbd8 <getSetFreeCluster+0xd8>
   else // when totOrNext = NEXT_FREE
	  FS->nextFreeCluster = FSEntry;
     bc8:	c0 92 22 05 	sts	0x0522, r12
     bcc:	d0 92 23 05 	sts	0x0523, r13
     bd0:	e0 92 24 05 	sts	0x0524, r14
     bd4:	f0 92 25 05 	sts	0x0525, r15
 
   error = SD_writeSingleBlock(unusedSectors + 1);	//update FSinfo
     bd8:	80 91 38 05 	lds	r24, 0x0538
     bdc:	90 91 39 05 	lds	r25, 0x0539
     be0:	a0 91 3a 05 	lds	r26, 0x053A
     be4:	b0 91 3b 05 	lds	r27, 0x053B
     be8:	bc 01       	movw	r22, r24
     bea:	cd 01       	movw	r24, r26
     bec:	6f 5f       	subi	r22, 0xFF	; 255
     bee:	7f 4f       	sbci	r23, 0xFF	; 255
     bf0:	8f 4f       	sbci	r24, 0xFF	; 255
     bf2:	9f 4f       	sbci	r25, 0xFF	; 255
     bf4:	0e 94 3e 17 	call	0x2e7c	; 0x2e7c <SD_writeSingleBlock>
 }
 return 0xffffffff;
     bf8:	0f ef       	ldi	r16, 0xFF	; 255
     bfa:	1f ef       	ldi	r17, 0xFF	; 255
     bfc:	98 01       	movw	r18, r16
     bfe:	0b c0       	rjmp	.+22     	; 0xc16 <getSetFreeCluster+0x116>
unsigned char error;

SD_readSingleBlock(unusedSectors + 1);

if((FS->leadSignature != 0x41615252) || (FS->structureSignature != 0x61417272) || (FS->trailSignature !=0xaa550000))
  return 0xffffffff;
     c00:	0f ef       	ldi	r16, 0xFF	; 255
     c02:	1f ef       	ldi	r17, 0xFF	; 255
     c04:	98 01       	movw	r18, r16
     c06:	07 c0       	rjmp	.+14     	; 0xc16 <getSetFreeCluster+0x116>
     c08:	0f ef       	ldi	r16, 0xFF	; 255
     c0a:	1f ef       	ldi	r17, 0xFF	; 255
     c0c:	98 01       	movw	r18, r16
     c0e:	03 c0       	rjmp	.+6      	; 0xc16 <getSetFreeCluster+0x116>
     c10:	0f ef       	ldi	r16, 0xFF	; 255
     c12:	1f ef       	ldi	r17, 0xFF	; 255
     c14:	98 01       	movw	r18, r16
	  FS->nextFreeCluster = FSEntry;
 
   error = SD_writeSingleBlock(unusedSectors + 1);	//update FSinfo
 }
 return 0xffffffff;
}
     c16:	60 2f       	mov	r22, r16
     c18:	71 2f       	mov	r23, r17
     c1a:	82 2f       	mov	r24, r18
     c1c:	93 2f       	mov	r25, r19
     c1e:	1f 91       	pop	r17
     c20:	0f 91       	pop	r16
     c22:	ff 90       	pop	r15
     c24:	ef 90       	pop	r14
     c26:	df 90       	pop	r13
     c28:	cf 90       	pop	r12
     c2a:	08 95       	ret

00000c2c <getBootSectorData>:
//parameters like bytesPerSector, sectorsPerCluster etc.
//Arguments: none
//return: none
//***************************************************************************
unsigned char getBootSectorData (void)
{
     c2c:	cf 92       	push	r12
     c2e:	df 92       	push	r13
     c30:	ef 92       	push	r14
     c32:	ff 92       	push	r15
     c34:	0f 93       	push	r16
     c36:	1f 93       	push	r17
     c38:	cf 93       	push	r28
     c3a:	df 93       	push	r29
struct BS_Structure *bpb; //mapping the buffer onto the structure
struct MBRinfo_Structure *mbr;
struct partitionInfo_Structure *partition;
unsigned long dataSectors;

unusedSectors = 0;
     c3c:	10 92 38 05 	sts	0x0538, r1
     c40:	10 92 39 05 	sts	0x0539, r1
     c44:	10 92 3a 05 	sts	0x053A, r1
     c48:	10 92 3b 05 	sts	0x053B, r1

SD_readSingleBlock(0);
     c4c:	60 e0       	ldi	r22, 0x00	; 0
     c4e:	70 e0       	ldi	r23, 0x00	; 0
     c50:	cb 01       	movw	r24, r22
     c52:	0e 94 0d 17 	call	0x2e1a	; 0x2e1a <SD_readSingleBlock>
bpb = (struct BS_Structure *)buffer;

if(bpb->jumpBoot[0]!=0xE9 && bpb->jumpBoot[0]!=0xEB)   //check if it is boot sector
     c56:	80 91 36 03 	lds	r24, 0x0336
     c5a:	89 3e       	cpi	r24, 0xE9	; 233
     c5c:	19 f1       	breq	.+70     	; 0xca4 <getBootSectorData+0x78>
     c5e:	8b 3e       	cpi	r24, 0xEB	; 235
     c60:	09 f1       	breq	.+66     	; 0xca4 <getBootSectorData+0x78>
{
  mbr = (struct MBRinfo_Structure *) buffer;       //if it is not boot sector, it must be MBR
  
  if(mbr->signature != 0xaa55) return 1;       //if it is not even MBR then it's not FAT32
     c62:	80 91 34 05 	lds	r24, 0x0534
     c66:	90 91 35 05 	lds	r25, 0x0535
     c6a:	85 35       	cpi	r24, 0x55	; 85
     c6c:	9a 4a       	sbci	r25, 0xAA	; 170
     c6e:	09 f0       	breq	.+2      	; 0xc72 <getBootSectorData+0x46>
     c70:	ab c0       	rjmp	.+342    	; 0xdc8 <getBootSectorData+0x19c>
  	
  partition = (struct partitionInfo_Structure *)(mbr->partitionData);//first partition
  unusedSectors = partition->firstSector; //the unused sectors, hidden to the FAT
     c72:	60 91 fc 04 	lds	r22, 0x04FC
     c76:	70 91 fd 04 	lds	r23, 0x04FD
     c7a:	80 91 fe 04 	lds	r24, 0x04FE
     c7e:	90 91 ff 04 	lds	r25, 0x04FF
     c82:	60 93 38 05 	sts	0x0538, r22
     c86:	70 93 39 05 	sts	0x0539, r23
     c8a:	80 93 3a 05 	sts	0x053A, r24
     c8e:	90 93 3b 05 	sts	0x053B, r25
  
  SD_readSingleBlock(partition->firstSector);//read the bpb sector
     c92:	0e 94 0d 17 	call	0x2e1a	; 0x2e1a <SD_readSingleBlock>
  bpb = (struct BS_Structure *)buffer;
  if(bpb->jumpBoot[0]!=0xE9 && bpb->jumpBoot[0]!=0xEB) return 1; 
     c96:	80 91 36 03 	lds	r24, 0x0336
     c9a:	89 3e       	cpi	r24, 0xE9	; 233
     c9c:	19 f0       	breq	.+6      	; 0xca4 <getBootSectorData+0x78>
     c9e:	8b 3e       	cpi	r24, 0xEB	; 235
     ca0:	09 f0       	breq	.+2      	; 0xca4 <getBootSectorData+0x78>
     ca2:	94 c0       	rjmp	.+296    	; 0xdcc <getBootSectorData+0x1a0>
}

bytesPerSector = bpb->bytesPerSector;
     ca4:	80 91 41 03 	lds	r24, 0x0341
     ca8:	90 91 42 03 	lds	r25, 0x0342
     cac:	90 93 27 03 	sts	0x0327, r25
     cb0:	80 93 26 03 	sts	0x0326, r24
//transmitHex(INT, bytesPerSector); transmitByte(' ');
sectorPerCluster = bpb->sectorPerCluster;
     cb4:	80 91 43 03 	lds	r24, 0x0343
     cb8:	90 e0       	ldi	r25, 0x00	; 0
     cba:	90 93 37 05 	sts	0x0537, r25
     cbe:	80 93 36 05 	sts	0x0536, r24
//transmitHex(INT, sectorPerCluster); transmitByte(' ');
reservedSectorCount = bpb->reservedSectorCount;
     cc2:	e0 91 44 03 	lds	r30, 0x0344
     cc6:	f0 91 45 03 	lds	r31, 0x0345
     cca:	f0 93 42 05 	sts	0x0542, r31
     cce:	e0 93 41 05 	sts	0x0541, r30
rootCluster = bpb->rootCluster;// + (sector / sectorPerCluster) +1;
     cd2:	80 91 62 03 	lds	r24, 0x0362
     cd6:	90 91 63 03 	lds	r25, 0x0363
     cda:	a0 91 64 03 	lds	r26, 0x0364
     cde:	b0 91 65 03 	lds	r27, 0x0365
     ce2:	80 93 2c 03 	sts	0x032C, r24
     ce6:	90 93 2d 03 	sts	0x032D, r25
     cea:	a0 93 2e 03 	sts	0x032E, r26
     cee:	b0 93 2f 03 	sts	0x032F, r27
firstDataSector = bpb->hiddenSectors + reservedSectorCount + (bpb->numberofFATs * bpb->FATsize_F32);
     cf2:	c0 91 41 05 	lds	r28, 0x0541
     cf6:	d0 91 42 05 	lds	r29, 0x0542
     cfa:	a0 91 46 03 	lds	r26, 0x0346
     cfe:	20 91 5a 03 	lds	r18, 0x035A
     d02:	30 91 5b 03 	lds	r19, 0x035B
     d06:	40 91 5c 03 	lds	r20, 0x035C
     d0a:	50 91 5d 03 	lds	r21, 0x035D
     d0e:	b0 e0       	ldi	r27, 0x00	; 0
     d10:	0e 94 4f 18 	call	0x309e	; 0x309e <__muluhisi3>
     d14:	00 91 52 03 	lds	r16, 0x0352
     d18:	10 91 53 03 	lds	r17, 0x0353
     d1c:	20 91 54 03 	lds	r18, 0x0354
     d20:	30 91 55 03 	lds	r19, 0x0355
     d24:	0c 0f       	add	r16, r28
     d26:	1d 1f       	adc	r17, r29
     d28:	21 1d       	adc	r18, r1
     d2a:	31 1d       	adc	r19, r1
     d2c:	06 0f       	add	r16, r22
     d2e:	17 1f       	adc	r17, r23
     d30:	28 1f       	adc	r18, r24
     d32:	39 1f       	adc	r19, r25
     d34:	00 93 1e 03 	sts	0x031E, r16
     d38:	10 93 1f 03 	sts	0x031F, r17
     d3c:	20 93 20 03 	sts	0x0320, r18
     d40:	30 93 21 03 	sts	0x0321, r19

dataSectors = bpb->totalSectors_F32
              - bpb->reservedSectorCount
              - ( bpb->numberofFATs * bpb->FATsize_F32);
totalClusters = dataSectors / sectorPerCluster;
     d44:	40 91 36 05 	lds	r20, 0x0536
     d48:	50 91 37 05 	lds	r21, 0x0537
reservedSectorCount = bpb->reservedSectorCount;
rootCluster = bpb->rootCluster;// + (sector / sectorPerCluster) +1;
firstDataSector = bpb->hiddenSectors + reservedSectorCount + (bpb->numberofFATs * bpb->FATsize_F32);

dataSectors = bpb->totalSectors_F32
              - bpb->reservedSectorCount
     d4c:	00 91 56 03 	lds	r16, 0x0356
     d50:	10 91 57 03 	lds	r17, 0x0357
     d54:	20 91 58 03 	lds	r18, 0x0358
     d58:	30 91 59 03 	lds	r19, 0x0359
     d5c:	0e 1b       	sub	r16, r30
     d5e:	1f 0b       	sbc	r17, r31
     d60:	21 09       	sbc	r18, r1
     d62:	31 09       	sbc	r19, r1
//transmitHex(INT, sectorPerCluster); transmitByte(' ');
reservedSectorCount = bpb->reservedSectorCount;
rootCluster = bpb->rootCluster;// + (sector / sectorPerCluster) +1;
firstDataSector = bpb->hiddenSectors + reservedSectorCount + (bpb->numberofFATs * bpb->FATsize_F32);

dataSectors = bpb->totalSectors_F32
     d64:	68 01       	movw	r12, r16
     d66:	79 01       	movw	r14, r18
     d68:	c6 1a       	sub	r12, r22
     d6a:	d7 0a       	sbc	r13, r23
     d6c:	e8 0a       	sbc	r14, r24
     d6e:	f9 0a       	sbc	r15, r25
     d70:	c7 01       	movw	r24, r14
     d72:	b6 01       	movw	r22, r12
              - bpb->reservedSectorCount
              - ( bpb->numberofFATs * bpb->FATsize_F32);
totalClusters = dataSectors / sectorPerCluster;
     d74:	9a 01       	movw	r18, r20
     d76:	40 e0       	ldi	r20, 0x00	; 0
     d78:	50 e0       	ldi	r21, 0x00	; 0
     d7a:	0e 94 21 18 	call	0x3042	; 0x3042 <__udivmodsi4>
     d7e:	20 93 28 03 	sts	0x0328, r18
     d82:	30 93 29 03 	sts	0x0329, r19
     d86:	40 93 2a 03 	sts	0x032A, r20
     d8a:	50 93 2b 03 	sts	0x032B, r21
//transmitHex(LONG, totalClusters); transmitByte(' ');

if((getSetFreeCluster (TOTAL_FREE, GET, 0)) > totalClusters)  //check if FSinfo free clusters count is valid
     d8e:	20 e0       	ldi	r18, 0x00	; 0
     d90:	30 e0       	ldi	r19, 0x00	; 0
     d92:	a9 01       	movw	r20, r18
     d94:	60 e0       	ldi	r22, 0x00	; 0
     d96:	81 e0       	ldi	r24, 0x01	; 1
     d98:	0e 94 80 05 	call	0xb00	; 0xb00 <getSetFreeCluster>
     d9c:	00 91 28 03 	lds	r16, 0x0328
     da0:	10 91 29 03 	lds	r17, 0x0329
     da4:	20 91 2a 03 	lds	r18, 0x032A
     da8:	30 91 2b 03 	lds	r19, 0x032B
     dac:	06 17       	cp	r16, r22
     dae:	17 07       	cpc	r17, r23
     db0:	28 07       	cpc	r18, r24
     db2:	39 07       	cpc	r19, r25
     db4:	20 f4       	brcc	.+8      	; 0xdbe <getBootSectorData+0x192>
     freeClusterCountUpdated = 0;
     db6:	10 92 ac 05 	sts	0x05AC, r1
else
	 freeClusterCountUpdated = 1;
return 0;
     dba:	80 e0       	ldi	r24, 0x00	; 0
     dbc:	08 c0       	rjmp	.+16     	; 0xdce <getBootSectorData+0x1a2>
//transmitHex(LONG, totalClusters); transmitByte(' ');

if((getSetFreeCluster (TOTAL_FREE, GET, 0)) > totalClusters)  //check if FSinfo free clusters count is valid
     freeClusterCountUpdated = 0;
else
	 freeClusterCountUpdated = 1;
     dbe:	81 e0       	ldi	r24, 0x01	; 1
     dc0:	80 93 ac 05 	sts	0x05AC, r24
return 0;
     dc4:	80 e0       	ldi	r24, 0x00	; 0
     dc6:	03 c0       	rjmp	.+6      	; 0xdce <getBootSectorData+0x1a2>

if(bpb->jumpBoot[0]!=0xE9 && bpb->jumpBoot[0]!=0xEB)   //check if it is boot sector
{
  mbr = (struct MBRinfo_Structure *) buffer;       //if it is not boot sector, it must be MBR
  
  if(mbr->signature != 0xaa55) return 1;       //if it is not even MBR then it's not FAT32
     dc8:	81 e0       	ldi	r24, 0x01	; 1
     dca:	01 c0       	rjmp	.+2      	; 0xdce <getBootSectorData+0x1a2>
  partition = (struct partitionInfo_Structure *)(mbr->partitionData);//first partition
  unusedSectors = partition->firstSector; //the unused sectors, hidden to the FAT
  
  SD_readSingleBlock(partition->firstSector);//read the bpb sector
  bpb = (struct BS_Structure *)buffer;
  if(bpb->jumpBoot[0]!=0xE9 && bpb->jumpBoot[0]!=0xEB) return 1; 
     dcc:	81 e0       	ldi	r24, 0x01	; 1
if((getSetFreeCluster (TOTAL_FREE, GET, 0)) > totalClusters)  //check if FSinfo free clusters count is valid
     freeClusterCountUpdated = 0;
else
	 freeClusterCountUpdated = 1;
return 0;
}
     dce:	df 91       	pop	r29
     dd0:	cf 91       	pop	r28
     dd2:	1f 91       	pop	r17
     dd4:	0f 91       	pop	r16
     dd6:	ff 90       	pop	r15
     dd8:	ef 90       	pop	r14
     dda:	df 90       	pop	r13
     ddc:	cf 90       	pop	r12
     dde:	08 95       	ret

00000de0 <convertFileName>:
//Function: to convert normal short file name into FAT format
//Arguments: pointer to the file name
//return: 0, if successful else 1.
//***************************************************************************
unsigned char convertFileName (unsigned char *fileName)
{
     de0:	cf 93       	push	r28
     de2:	df 93       	push	r29
     de4:	cd b7       	in	r28, 0x3d	; 61
     de6:	de b7       	in	r29, 0x3e	; 62
     de8:	2b 97       	sbiw	r28, 0x0b	; 11
     dea:	0f b6       	in	r0, 0x3f	; 63
     dec:	f8 94       	cli
     dee:	de bf       	out	0x3e, r29	; 62
     df0:	0f be       	out	0x3f, r0	; 63
     df2:	cd bf       	out	0x3d, r28	; 61
unsigned char fileNameFAT[11];
unsigned char j, k;

for(j=0; j<12; j++)
if(fileName[j] == '.') break;
     df4:	fc 01       	movw	r30, r24
     df6:	20 81       	ld	r18, Z
     df8:	2e 32       	cpi	r18, 0x2E	; 46
     dfa:	79 f0       	breq	.+30     	; 0xe1a <convertFileName+0x3a>
//***************************************************************************
//Function: to convert normal short file name into FAT format
//Arguments: pointer to the file name
//return: 0, if successful else 1.
//***************************************************************************
unsigned char convertFileName (unsigned char *fileName)
     dfc:	dc 01       	movw	r26, r24
     dfe:	11 96       	adiw	r26, 0x01	; 1
{
unsigned char fileNameFAT[11];
unsigned char j, k;

for(j=0; j<12; j++)
     e00:	41 e0       	ldi	r20, 0x01	; 1
if(fileName[j] == '.') break;
     e02:	2d 91       	ld	r18, X+
     e04:	2e 32       	cpi	r18, 0x2E	; 46
     e06:	21 f0       	breq	.+8      	; 0xe10 <convertFileName+0x30>
unsigned char convertFileName (unsigned char *fileName)
{
unsigned char fileNameFAT[11];
unsigned char j, k;

for(j=0; j<12; j++)
     e08:	4f 5f       	subi	r20, 0xFF	; 255
     e0a:	4c 30       	cpi	r20, 0x0C	; 12
     e0c:	d1 f7       	brne	.-12     	; 0xe02 <convertFileName+0x22>
     e0e:	09 c0       	rjmp	.+18     	; 0xe22 <convertFileName+0x42>
if(fileName[j] == '.') break;

if(j>8) {transmitString_F(PSTR("Invalid fileName..")); return 1;}
     e10:	49 30       	cpi	r20, 0x09	; 9
     e12:	38 f4       	brcc	.+14     	; 0xe22 <convertFileName+0x42>

for(k=0; k<j; k++) //setting file name
     e14:	41 11       	cpse	r20, r1
     e16:	0b c0       	rjmp	.+22     	; 0xe2e <convertFileName+0x4e>
     e18:	01 c0       	rjmp	.+2      	; 0xe1c <convertFileName+0x3c>
unsigned char convertFileName (unsigned char *fileName)
{
unsigned char fileNameFAT[11];
unsigned char j, k;

for(j=0; j<12; j++)
     e1a:	40 e0       	ldi	r20, 0x00	; 0
     e1c:	24 2f       	mov	r18, r20

for(k=0; k<j; k++) //setting file name
  fileNameFAT[k] = fileName[k];

for(k=j; k<=7; k++) //filling file name trail with blanks
  fileNameFAT[k] = ' ';
     e1e:	30 e2       	ldi	r19, 0x20	; 32
     e20:	18 c0       	rjmp	.+48     	; 0xe52 <convertFileName+0x72>
unsigned char j, k;

for(j=0; j<12; j++)
if(fileName[j] == '.') break;

if(j>8) {transmitString_F(PSTR("Invalid fileName..")); return 1;}
     e22:	8a ec       	ldi	r24, 0xCA	; 202
     e24:	90 e0       	ldi	r25, 0x00	; 0
     e26:	0e 94 ee 17 	call	0x2fdc	; 0x2fdc <transmitString_F>
     e2a:	81 e0       	ldi	r24, 0x01	; 1
     e2c:	57 c0       	rjmp	.+174    	; 0xedc <convertFileName+0xfc>
     e2e:	fc 01       	movw	r30, r24
     e30:	de 01       	movw	r26, r28
     e32:	11 96       	adiw	r26, 0x01	; 1
//***************************************************************************
//Function: to convert normal short file name into FAT format
//Arguments: pointer to the file name
//return: 0, if successful else 1.
//***************************************************************************
unsigned char convertFileName (unsigned char *fileName)
     e34:	9c 01       	movw	r18, r24
     e36:	2f 5f       	subi	r18, 0xFF	; 255
     e38:	3f 4f       	sbci	r19, 0xFF	; 255
     e3a:	54 2f       	mov	r21, r20
     e3c:	51 50       	subi	r21, 0x01	; 1
     e3e:	25 0f       	add	r18, r21
     e40:	31 1d       	adc	r19, r1
if(fileName[j] == '.') break;

if(j>8) {transmitString_F(PSTR("Invalid fileName..")); return 1;}

for(k=0; k<j; k++) //setting file name
  fileNameFAT[k] = fileName[k];
     e42:	51 91       	ld	r21, Z+
     e44:	5d 93       	st	X+, r21
for(j=0; j<12; j++)
if(fileName[j] == '.') break;

if(j>8) {transmitString_F(PSTR("Invalid fileName..")); return 1;}

for(k=0; k<j; k++) //setting file name
     e46:	e2 17       	cp	r30, r18
     e48:	f3 07       	cpc	r31, r19
     e4a:	d9 f7       	brne	.-10     	; 0xe42 <convertFileName+0x62>
  fileNameFAT[k] = fileName[k];

for(k=j; k<=7; k++) //filling file name trail with blanks
     e4c:	48 30       	cpi	r20, 0x08	; 8
     e4e:	30 f3       	brcs	.-52     	; 0xe1c <convertFileName+0x3c>
     e50:	0a c0       	rjmp	.+20     	; 0xe66 <convertFileName+0x86>
  fileNameFAT[k] = ' ';
     e52:	a1 e0       	ldi	r26, 0x01	; 1
     e54:	b0 e0       	ldi	r27, 0x00	; 0
     e56:	ac 0f       	add	r26, r28
     e58:	bd 1f       	adc	r27, r29
     e5a:	a2 0f       	add	r26, r18
     e5c:	b1 1d       	adc	r27, r1
     e5e:	3c 93       	st	X, r19
if(j>8) {transmitString_F(PSTR("Invalid fileName..")); return 1;}

for(k=0; k<j; k++) //setting file name
  fileNameFAT[k] = fileName[k];

for(k=j; k<=7; k++) //filling file name trail with blanks
     e60:	2f 5f       	subi	r18, 0xFF	; 255
     e62:	28 30       	cpi	r18, 0x08	; 8
     e64:	b0 f3       	brcs	.-20     	; 0xe52 <convertFileName+0x72>
  fileNameFAT[k] = ' ';

j++;
     e66:	4f 5f       	subi	r20, 0xFF	; 255
for(k=8; k<11; k++) //setting file extention
     e68:	28 e0       	ldi	r18, 0x08	; 8
{
  if(fileName[j] != 0)
     e6a:	dc 01       	movw	r26, r24
     e6c:	a4 0f       	add	r26, r20
     e6e:	b1 1d       	adc	r27, r1
     e70:	3c 91       	ld	r19, X
     e72:	31 11       	cpse	r19, r1
     e74:	03 c0       	rjmp	.+6      	; 0xe7c <convertFileName+0x9c>
    fileNameFAT[k] = fileName[j++];
  else //filling extension trail with blanks
    while(k<11)
     e76:	2b 30       	cpi	r18, 0x0B	; 11
     e78:	50 f0       	brcs	.+20     	; 0xe8e <convertFileName+0xae>
     e7a:	15 c0       	rjmp	.+42     	; 0xea6 <convertFileName+0xc6>

j++;
for(k=8; k<11; k++) //setting file extention
{
  if(fileName[j] != 0)
    fileNameFAT[k] = fileName[j++];
     e7c:	e1 e0       	ldi	r30, 0x01	; 1
     e7e:	f0 e0       	ldi	r31, 0x00	; 0
     e80:	ec 0f       	add	r30, r28
     e82:	fd 1f       	adc	r31, r29
     e84:	e2 0f       	add	r30, r18
     e86:	f1 1d       	adc	r31, r1
     e88:	30 83       	st	Z, r19
     e8a:	4f 5f       	subi	r20, 0xFF	; 255
     e8c:	0c c0       	rjmp	.+24     	; 0xea6 <convertFileName+0xc6>
  else //filling extension trail with blanks
    while(k<11)
      fileNameFAT[k++] = ' ';
     e8e:	30 e2       	ldi	r19, 0x20	; 32
     e90:	e1 e0       	ldi	r30, 0x01	; 1
     e92:	f0 e0       	ldi	r31, 0x00	; 0
     e94:	ec 0f       	add	r30, r28
     e96:	fd 1f       	adc	r31, r29
     e98:	e2 0f       	add	r30, r18
     e9a:	f1 1d       	adc	r31, r1
     e9c:	30 83       	st	Z, r19
     e9e:	2f 5f       	subi	r18, 0xFF	; 255
for(k=8; k<11; k++) //setting file extention
{
  if(fileName[j] != 0)
    fileNameFAT[k] = fileName[j++];
  else //filling extension trail with blanks
    while(k<11)
     ea0:	2b 30       	cpi	r18, 0x0B	; 11
     ea2:	b1 f7       	brne	.-20     	; 0xe90 <convertFileName+0xb0>
     ea4:	03 c0       	rjmp	.+6      	; 0xeac <convertFileName+0xcc>

for(k=j; k<=7; k++) //filling file name trail with blanks
  fileNameFAT[k] = ' ';

j++;
for(k=8; k<11; k++) //setting file extention
     ea6:	2f 5f       	subi	r18, 0xFF	; 255
     ea8:	2b 30       	cpi	r18, 0x0B	; 11
     eaa:	f8 f2       	brcs	.-66     	; 0xe6a <convertFileName+0x8a>
     eac:	de 01       	movw	r26, r28
     eae:	11 96       	adiw	r26, 0x01	; 1
//***************************************************************************
//Function: to convert normal short file name into FAT format
//Arguments: pointer to the file name
//return: 0, if successful else 1.
//***************************************************************************
unsigned char convertFileName (unsigned char *fileName)
     eb0:	9e 01       	movw	r18, r28
     eb2:	24 5f       	subi	r18, 0xF4	; 244
     eb4:	3f 4f       	sbci	r19, 0xFF	; 255
     eb6:	fd 01       	movw	r30, r26
    while(k<11)
      fileNameFAT[k++] = ' ';
}

for(j=0; j<11; j++) //converting small letters to caps
  if((fileNameFAT[j] >= 0x61) && (fileNameFAT[j] <= 0x7a))
     eb8:	40 81       	ld	r20, Z
     eba:	54 2f       	mov	r21, r20
     ebc:	51 56       	subi	r21, 0x61	; 97
     ebe:	5a 31       	cpi	r21, 0x1A	; 26
     ec0:	10 f4       	brcc	.+4      	; 0xec6 <convertFileName+0xe6>
    fileNameFAT[j] -= 0x20;
     ec2:	40 52       	subi	r20, 0x20	; 32
     ec4:	40 83       	st	Z, r20
     ec6:	31 96       	adiw	r30, 0x01	; 1
  else //filling extension trail with blanks
    while(k<11)
      fileNameFAT[k++] = ' ';
}

for(j=0; j<11; j++) //converting small letters to caps
     ec8:	e2 17       	cp	r30, r18
     eca:	f3 07       	cpc	r31, r19
     ecc:	a9 f7       	brne	.-22     	; 0xeb8 <convertFileName+0xd8>
     ece:	fc 01       	movw	r30, r24
  if((fileNameFAT[j] >= 0x61) && (fileNameFAT[j] <= 0x7a))
    fileNameFAT[j] -= 0x20;

for(j=0; j<11; j++)
  fileName[j] = fileNameFAT[j];
     ed0:	8d 91       	ld	r24, X+
     ed2:	81 93       	st	Z+, r24

for(j=0; j<11; j++) //converting small letters to caps
  if((fileNameFAT[j] >= 0x61) && (fileNameFAT[j] <= 0x7a))
    fileNameFAT[j] -= 0x20;

for(j=0; j<11; j++)
     ed4:	2a 17       	cp	r18, r26
     ed6:	3b 07       	cpc	r19, r27
     ed8:	d9 f7       	brne	.-10     	; 0xed0 <convertFileName+0xf0>
  fileName[j] = fileNameFAT[j];

return 0;
     eda:	80 e0       	ldi	r24, 0x00	; 0
}
     edc:	2b 96       	adiw	r28, 0x0b	; 11
     ede:	0f b6       	in	r0, 0x3f	; 63
     ee0:	f8 94       	cli
     ee2:	de bf       	out	0x3e, r29	; 62
     ee4:	0f be       	out	0x3f, r0	; 63
     ee6:	cd bf       	out	0x3d, r28	; 61
     ee8:	df 91       	pop	r29
     eea:	cf 91       	pop	r28
     eec:	08 95       	ret

00000eee <searchNextFreeCluster>:
//          starting from a specified cluster
//Arguments: Starting cluster
//return: the next free cluster
//****************************************************************
unsigned long searchNextFreeCluster (unsigned long startCluster)
{
     eee:	4f 92       	push	r4
     ef0:	5f 92       	push	r5
     ef2:	6f 92       	push	r6
     ef4:	7f 92       	push	r7
     ef6:	8f 92       	push	r8
     ef8:	9f 92       	push	r9
     efa:	af 92       	push	r10
     efc:	bf 92       	push	r11
     efe:	cf 92       	push	r12
     f00:	df 92       	push	r13
     f02:	ef 92       	push	r14
     f04:	ff 92       	push	r15
     f06:	1f 93       	push	r17
     f08:	cf 93       	push	r28
     f0a:	df 93       	push	r29
  unsigned long cluster, *value, sector;
  unsigned char i;
    
	startCluster -=  (startCluster % 128);   //to start with the first file in a FAT sector
     f0c:	68 94       	set
     f0e:	cc 24       	eor	r12, r12
     f10:	c7 f8       	bld	r12, 7
     f12:	dd 24       	eor	r13, r13
     f14:	da 94       	dec	r13
     f16:	ed 2c       	mov	r14, r13
     f18:	fd 2c       	mov	r15, r13
     f1a:	c6 22       	and	r12, r22
     f1c:	d7 22       	and	r13, r23
     f1e:	e8 22       	and	r14, r24
     f20:	f9 22       	and	r15, r25
    for(cluster =startCluster; cluster <totalClusters; cluster+=128) 
     f22:	80 91 28 03 	lds	r24, 0x0328
     f26:	90 91 29 03 	lds	r25, 0x0329
     f2a:	a0 91 2a 03 	lds	r26, 0x032A
     f2e:	b0 91 2b 03 	lds	r27, 0x032B
     f32:	c8 16       	cp	r12, r24
     f34:	d9 06       	cpc	r13, r25
     f36:	ea 06       	cpc	r14, r26
     f38:	fb 06       	cpc	r15, r27
     f3a:	08 f0       	brcs	.+2      	; 0xf3e <searchNextFreeCluster+0x50>
     f3c:	6e c0       	rjmp	.+220    	; 0x101a <searchNextFreeCluster+0x12c>
     f3e:	46 01       	movw	r8, r12
     f40:	57 01       	movw	r10, r14
     f42:	88 0c       	add	r8, r8
     f44:	99 1c       	adc	r9, r9
     f46:	aa 1c       	adc	r10, r10
     f48:	bb 1c       	adc	r11, r11
     f4a:	88 0c       	add	r8, r8
     f4c:	99 1c       	adc	r9, r9
     f4e:	aa 1c       	adc	r10, r10
     f50:	bb 1c       	adc	r11, r11
      sector = unusedSectors + reservedSectorCount + ((cluster * 4) / bytesPerSector);
      SD_readSingleBlock(sector);
      for(i=0; i<128; i++)
      {
       	 value = (unsigned long *) &buffer[i*4];
         if(((*value) & 0x0fffffff) == 0)
     f52:	c6 e3       	ldi	r28, 0x36	; 54
     f54:	d3 e0       	ldi	r29, 0x03	; 3
	startCluster -=  (startCluster % 128);   //to start with the first file in a FAT sector
    for(cluster =startCluster; cluster <totalClusters; cluster+=128) 
    {
      sector = unusedSectors + reservedSectorCount + ((cluster * 4) / bytesPerSector);
      SD_readSingleBlock(sector);
      for(i=0; i<128; i++)
     f56:	11 e0       	ldi	r17, 0x01	; 1
  unsigned char i;
    
	startCluster -=  (startCluster % 128);   //to start with the first file in a FAT sector
    for(cluster =startCluster; cluster <totalClusters; cluster+=128) 
    {
      sector = unusedSectors + reservedSectorCount + ((cluster * 4) / bytesPerSector);
     f58:	80 91 41 05 	lds	r24, 0x0541
     f5c:	90 91 42 05 	lds	r25, 0x0542
     f60:	20 91 26 03 	lds	r18, 0x0326
     f64:	30 91 27 03 	lds	r19, 0x0327
     f68:	40 90 38 05 	lds	r4, 0x0538
     f6c:	50 90 39 05 	lds	r5, 0x0539
     f70:	60 90 3a 05 	lds	r6, 0x053A
     f74:	70 90 3b 05 	lds	r7, 0x053B
     f78:	48 0e       	add	r4, r24
     f7a:	59 1e       	adc	r5, r25
     f7c:	61 1c       	adc	r6, r1
     f7e:	71 1c       	adc	r7, r1
     f80:	40 e0       	ldi	r20, 0x00	; 0
     f82:	50 e0       	ldi	r21, 0x00	; 0
     f84:	c5 01       	movw	r24, r10
     f86:	b4 01       	movw	r22, r8
     f88:	0e 94 21 18 	call	0x3042	; 0x3042 <__udivmodsi4>
     f8c:	c3 01       	movw	r24, r6
     f8e:	b2 01       	movw	r22, r4
     f90:	62 0f       	add	r22, r18
     f92:	73 1f       	adc	r23, r19
     f94:	84 1f       	adc	r24, r20
     f96:	95 1f       	adc	r25, r21
      SD_readSingleBlock(sector);
     f98:	0e 94 0d 17 	call	0x2e1a	; 0x2e1a <SD_readSingleBlock>
      for(i=0; i<128; i++)
      {
       	 value = (unsigned long *) &buffer[i*4];
         if(((*value) & 0x0fffffff) == 0)
     f9c:	88 81       	ld	r24, Y
     f9e:	99 81       	ldd	r25, Y+1	; 0x01
     fa0:	aa 81       	ldd	r26, Y+2	; 0x02
     fa2:	bb 81       	ldd	r27, Y+3	; 0x03
     fa4:	bf 70       	andi	r27, 0x0F	; 15
     fa6:	89 2b       	or	r24, r25
     fa8:	8a 2b       	or	r24, r26
     faa:	8b 2b       	or	r24, r27
     fac:	99 f0       	breq	.+38     	; 0xfd4 <searchNextFreeCluster+0xe6>
	startCluster -=  (startCluster % 128);   //to start with the first file in a FAT sector
    for(cluster =startCluster; cluster <totalClusters; cluster+=128) 
    {
      sector = unusedSectors + reservedSectorCount + ((cluster * 4) / bytesPerSector);
      SD_readSingleBlock(sector);
      for(i=0; i<128; i++)
     fae:	21 2f       	mov	r18, r17
      {
       	 value = (unsigned long *) &buffer[i*4];
     fb0:	e2 2f       	mov	r30, r18
     fb2:	f0 e0       	ldi	r31, 0x00	; 0
     fb4:	ee 0f       	add	r30, r30
     fb6:	ff 1f       	adc	r31, r31
     fb8:	ee 0f       	add	r30, r30
     fba:	ff 1f       	adc	r31, r31
         if(((*value) & 0x0fffffff) == 0)
     fbc:	ea 5c       	subi	r30, 0xCA	; 202
     fbe:	fc 4f       	sbci	r31, 0xFC	; 252
     fc0:	80 81       	ld	r24, Z
     fc2:	91 81       	ldd	r25, Z+1	; 0x01
     fc4:	a2 81       	ldd	r26, Z+2	; 0x02
     fc6:	b3 81       	ldd	r27, Z+3	; 0x03
     fc8:	bf 70       	andi	r27, 0x0F	; 15
     fca:	89 2b       	or	r24, r25
     fcc:	8a 2b       	or	r24, r26
     fce:	8b 2b       	or	r24, r27
     fd0:	39 f4       	brne	.+14     	; 0xfe0 <searchNextFreeCluster+0xf2>
     fd2:	01 c0       	rjmp	.+2      	; 0xfd6 <searchNextFreeCluster+0xe8>
	startCluster -=  (startCluster % 128);   //to start with the first file in a FAT sector
    for(cluster =startCluster; cluster <totalClusters; cluster+=128) 
    {
      sector = unusedSectors + reservedSectorCount + ((cluster * 4) / bytesPerSector);
      SD_readSingleBlock(sector);
      for(i=0; i<128; i++)
     fd4:	20 e0       	ldi	r18, 0x00	; 0
      {
       	 value = (unsigned long *) &buffer[i*4];
         if(((*value) & 0x0fffffff) == 0)
            return(cluster+i);
     fd6:	c2 0e       	add	r12, r18
     fd8:	d1 1c       	adc	r13, r1
     fda:	e1 1c       	adc	r14, r1
     fdc:	f1 1c       	adc	r15, r1
     fde:	20 c0       	rjmp	.+64     	; 0x1020 <searchNextFreeCluster+0x132>
	startCluster -=  (startCluster % 128);   //to start with the first file in a FAT sector
    for(cluster =startCluster; cluster <totalClusters; cluster+=128) 
    {
      sector = unusedSectors + reservedSectorCount + ((cluster * 4) / bytesPerSector);
      SD_readSingleBlock(sector);
      for(i=0; i<128; i++)
     fe0:	2f 5f       	subi	r18, 0xFF	; 255
     fe2:	32 f7       	brpl	.-52     	; 0xfb0 <searchNextFreeCluster+0xc2>
{
  unsigned long cluster, *value, sector;
  unsigned char i;
    
	startCluster -=  (startCluster % 128);   //to start with the first file in a FAT sector
    for(cluster =startCluster; cluster <totalClusters; cluster+=128) 
     fe4:	20 e8       	ldi	r18, 0x80	; 128
     fe6:	c2 0e       	add	r12, r18
     fe8:	d1 1c       	adc	r13, r1
     fea:	e1 1c       	adc	r14, r1
     fec:	f1 1c       	adc	r15, r1
     fee:	80 91 28 03 	lds	r24, 0x0328
     ff2:	90 91 29 03 	lds	r25, 0x0329
     ff6:	a0 91 2a 03 	lds	r26, 0x032A
     ffa:	b0 91 2b 03 	lds	r27, 0x032B
     ffe:	22 e0       	ldi	r18, 0x02	; 2
    1000:	92 0e       	add	r9, r18
    1002:	a1 1c       	adc	r10, r1
    1004:	b1 1c       	adc	r11, r1
    1006:	c8 16       	cp	r12, r24
    1008:	d9 06       	cpc	r13, r25
    100a:	ea 06       	cpc	r14, r26
    100c:	fb 06       	cpc	r15, r27
    100e:	08 f4       	brcc	.+2      	; 0x1012 <searchNextFreeCluster+0x124>
    1010:	a3 cf       	rjmp	.-186    	; 0xf58 <searchNextFreeCluster+0x6a>
         if(((*value) & 0x0fffffff) == 0)
            return(cluster+i);
      }  
    } 

 return 0;
    1012:	c1 2c       	mov	r12, r1
    1014:	d1 2c       	mov	r13, r1
    1016:	76 01       	movw	r14, r12
    1018:	03 c0       	rjmp	.+6      	; 0x1020 <searchNextFreeCluster+0x132>
    101a:	c1 2c       	mov	r12, r1
    101c:	d1 2c       	mov	r13, r1
    101e:	76 01       	movw	r14, r12
}
    1020:	6c 2d       	mov	r22, r12
    1022:	7d 2d       	mov	r23, r13
    1024:	8e 2d       	mov	r24, r14
    1026:	9f 2d       	mov	r25, r15
    1028:	df 91       	pop	r29
    102a:	cf 91       	pop	r28
    102c:	1f 91       	pop	r17
    102e:	ff 90       	pop	r15
    1030:	ef 90       	pop	r14
    1032:	df 90       	pop	r13
    1034:	cf 90       	pop	r12
    1036:	bf 90       	pop	r11
    1038:	af 90       	pop	r10
    103a:	9f 90       	pop	r9
    103c:	8f 90       	pop	r8
    103e:	7f 90       	pop	r7
    1040:	6f 90       	pop	r6
    1042:	5f 90       	pop	r5
    1044:	4f 90       	pop	r4
    1046:	08 95       	ret

00001048 <displayMemory>:
//Arguments: 1. unsigned char flag. If flag is HIGH, memory will be displayed in KBytes, else in Bytes. 
//			 2. unsigned long memory value
//return: none
//************************************************************
void displayMemory (unsigned char flag, unsigned long memory)
{
    1048:	9f 92       	push	r9
    104a:	af 92       	push	r10
    104c:	bf 92       	push	r11
    104e:	cf 92       	push	r12
    1050:	df 92       	push	r13
    1052:	ef 92       	push	r14
    1054:	ff 92       	push	r15
    1056:	0f 93       	push	r16
    1058:	1f 93       	push	r17
    105a:	cf 93       	push	r28
    105c:	df 93       	push	r29
    105e:	cd b7       	in	r28, 0x3d	; 61
    1060:	de b7       	in	r29, 0x3e	; 62
    1062:	64 97       	sbiw	r28, 0x14	; 20
    1064:	0f b6       	in	r0, 0x3f	; 63
    1066:	f8 94       	cli
    1068:	de bf       	out	0x3e, r29	; 62
    106a:	0f be       	out	0x3f, r0	; 63
    106c:	cd bf       	out	0x3d, r28	; 61
    106e:	98 2e       	mov	r9, r24
    1070:	cb 01       	movw	r24, r22
    1072:	ba 01       	movw	r22, r20
  unsigned char memoryString[] = "              Bytes"; //19 character long string for memory display
    1074:	24 e1       	ldi	r18, 0x14	; 20
    1076:	e1 e8       	ldi	r30, 0x81	; 129
    1078:	f0 e0       	ldi	r31, 0x00	; 0
    107a:	de 01       	movw	r26, r28
    107c:	11 96       	adiw	r26, 0x01	; 1
    107e:	01 90       	ld	r0, Z+
    1080:	0d 92       	st	X+, r0
    1082:	2a 95       	dec	r18
    1084:	e1 f7       	brne	.-8      	; 0x107e <displayMemory+0x36>
  unsigned char i;
  for(i=12; i>0; i--) //converting freeMemory into ASCII string
    1086:	0f 2e       	mov	r0, r31
    1088:	fc e0       	ldi	r31, 0x0C	; 12
    108a:	bf 2e       	mov	r11, r31
    108c:	f0 2d       	mov	r31, r0
  {
    if(i==5 || i==9) 
	{
	   memoryString[i-1] = ',';  
    108e:	0f 2e       	mov	r0, r31
    1090:	fc e2       	ldi	r31, 0x2C	; 44
    1092:	af 2e       	mov	r10, r31
    1094:	f0 2d       	mov	r31, r0
	   i--;
	}
    memoryString[i-1] = (memory % 10) | 0x30;
    1096:	0f 2e       	mov	r0, r31
    1098:	fa e0       	ldi	r31, 0x0A	; 10
    109a:	cf 2e       	mov	r12, r31
    109c:	d1 2c       	mov	r13, r1
    109e:	e1 2c       	mov	r14, r1
    10a0:	f1 2c       	mov	r15, r1
    10a2:	f0 2d       	mov	r31, r0
{
  unsigned char memoryString[] = "              Bytes"; //19 character long string for memory display
  unsigned char i;
  for(i=12; i>0; i--) //converting freeMemory into ASCII string
  {
    if(i==5 || i==9) 
    10a4:	25 e0       	ldi	r18, 0x05	; 5
    10a6:	b2 16       	cp	r11, r18
    10a8:	19 f0       	breq	.+6      	; 0x10b0 <displayMemory+0x68>
    10aa:	e9 e0       	ldi	r30, 0x09	; 9
    10ac:	be 12       	cpse	r11, r30
    10ae:	05 c0       	rjmp	.+10     	; 0x10ba <displayMemory+0x72>
	{
	   memoryString[i-1] = ',';  
    10b0:	fe 01       	movw	r30, r28
    10b2:	eb 0d       	add	r30, r11
    10b4:	f1 1d       	adc	r31, r1
    10b6:	a0 82       	st	Z, r10
	   i--;
    10b8:	ba 94       	dec	r11
	}
    memoryString[i-1] = (memory % 10) | 0x30;
    10ba:	8e 01       	movw	r16, r28
    10bc:	0b 0d       	add	r16, r11
    10be:	11 1d       	adc	r17, r1
    10c0:	a7 01       	movw	r20, r14
    10c2:	96 01       	movw	r18, r12
    10c4:	0e 94 21 18 	call	0x3042	; 0x3042 <__udivmodsi4>
    10c8:	dc 01       	movw	r26, r24
    10ca:	cb 01       	movw	r24, r22
    10cc:	80 63       	ori	r24, 0x30	; 48
    10ce:	f8 01       	movw	r30, r16
    10d0:	80 83       	st	Z, r24
    memory /= 10;
    10d2:	62 2f       	mov	r22, r18
    10d4:	73 2f       	mov	r23, r19
    10d6:	84 2f       	mov	r24, r20
    10d8:	95 2f       	mov	r25, r21
	if(memory == 0) break;
    10da:	61 15       	cp	r22, r1
    10dc:	71 05       	cpc	r23, r1
    10de:	81 05       	cpc	r24, r1
    10e0:	91 05       	cpc	r25, r1
    10e2:	11 f0       	breq	.+4      	; 0x10e8 <displayMemory+0xa0>
//************************************************************
void displayMemory (unsigned char flag, unsigned long memory)
{
  unsigned char memoryString[] = "              Bytes"; //19 character long string for memory display
  unsigned char i;
  for(i=12; i>0; i--) //converting freeMemory into ASCII string
    10e4:	ba 94       	dec	r11
    10e6:	f1 f6       	brne	.-68     	; 0x10a4 <displayMemory+0x5c>
	}
    memoryString[i-1] = (memory % 10) | 0x30;
    memory /= 10;
	if(memory == 0) break;
  }
  if(flag == HIGH)  memoryString[13] = 'K';
    10e8:	f1 e0       	ldi	r31, 0x01	; 1
    10ea:	9f 12       	cpse	r9, r31
    10ec:	02 c0       	rjmp	.+4      	; 0x10f2 <displayMemory+0xaa>
    10ee:	8b e4       	ldi	r24, 0x4B	; 75
    10f0:	8e 87       	std	Y+14, r24	; 0x0e
  transmitString(memoryString);
    10f2:	ce 01       	movw	r24, r28
    10f4:	01 96       	adiw	r24, 0x01	; 1
    10f6:	0e 94 02 18 	call	0x3004	; 0x3004 <transmitString>
}
    10fa:	64 96       	adiw	r28, 0x14	; 20
    10fc:	0f b6       	in	r0, 0x3f	; 63
    10fe:	f8 94       	cli
    1100:	de bf       	out	0x3e, r29	; 62
    1102:	0f be       	out	0x3f, r0	; 63
    1104:	cd bf       	out	0x3d, r28	; 61
    1106:	df 91       	pop	r29
    1108:	cf 91       	pop	r28
    110a:	1f 91       	pop	r17
    110c:	0f 91       	pop	r16
    110e:	ff 90       	pop	r15
    1110:	ef 90       	pop	r14
    1112:	df 90       	pop	r13
    1114:	cf 90       	pop	r12
    1116:	bf 90       	pop	r11
    1118:	af 90       	pop	r10
    111a:	9f 90       	pop	r9
    111c:	08 95       	ret

0000111e <freeMemoryUpdate>:
//			to ADD or REMOVE clusters occupied by the file
//Arguments: #1.flag ADD or REMOVE #2.file size in Bytes
//return: none
//********************************************************************
void freeMemoryUpdate (unsigned char flag, unsigned long size)
{
    111e:	cf 92       	push	r12
    1120:	df 92       	push	r13
    1122:	ef 92       	push	r14
    1124:	ff 92       	push	r15
    1126:	cf 93       	push	r28
    1128:	c8 2f       	mov	r28, r24
  unsigned long freeClusters;
  //convert file size into number of clusters occupied
  if((size % 512) == 0) size = size / 512;
    112a:	c1 2c       	mov	r12, r1
    112c:	d1 2c       	mov	r13, r1
    112e:	76 01       	movw	r14, r12
    1130:	ca 94       	dec	r12
    1132:	d3 94       	inc	r13
    1134:	c4 22       	and	r12, r20
    1136:	d5 22       	and	r13, r21
    1138:	e6 22       	and	r14, r22
    113a:	f7 22       	and	r15, r23
    113c:	cd 28       	or	r12, r13
    113e:	ce 28       	or	r12, r14
    1140:	cf 28       	or	r12, r15
    1142:	61 f4       	brne	.+24     	; 0x115c <freeMemoryUpdate+0x3e>
    1144:	db 01       	movw	r26, r22
    1146:	ca 01       	movw	r24, r20
    1148:	07 2e       	mov	r0, r23
    114a:	79 e0       	ldi	r23, 0x09	; 9
    114c:	b6 95       	lsr	r27
    114e:	a7 95       	ror	r26
    1150:	97 95       	ror	r25
    1152:	87 95       	ror	r24
    1154:	7a 95       	dec	r23
    1156:	d1 f7       	brne	.-12     	; 0x114c <freeMemoryUpdate+0x2e>
    1158:	70 2d       	mov	r23, r0
    115a:	0e c0       	rjmp	.+28     	; 0x1178 <freeMemoryUpdate+0x5a>
  else size = (size / 512) +1;
    115c:	db 01       	movw	r26, r22
    115e:	ca 01       	movw	r24, r20
    1160:	07 2e       	mov	r0, r23
    1162:	79 e0       	ldi	r23, 0x09	; 9
    1164:	b6 95       	lsr	r27
    1166:	a7 95       	ror	r26
    1168:	97 95       	ror	r25
    116a:	87 95       	ror	r24
    116c:	7a 95       	dec	r23
    116e:	d1 f7       	brne	.-12     	; 0x1164 <freeMemoryUpdate+0x46>
    1170:	70 2d       	mov	r23, r0
    1172:	01 96       	adiw	r24, 0x01	; 1
    1174:	a1 1d       	adc	r26, r1
    1176:	b1 1d       	adc	r27, r1
  if((size % 8) == 0) size = size / 8;
    1178:	0f 2e       	mov	r0, r31
    117a:	f7 e0       	ldi	r31, 0x07	; 7
    117c:	cf 2e       	mov	r12, r31
    117e:	d1 2c       	mov	r13, r1
    1180:	e1 2c       	mov	r14, r1
    1182:	f1 2c       	mov	r15, r1
    1184:	f0 2d       	mov	r31, r0
    1186:	c8 22       	and	r12, r24
    1188:	d9 22       	and	r13, r25
    118a:	ea 22       	and	r14, r26
    118c:	fb 22       	and	r15, r27
    118e:	cd 28       	or	r12, r13
    1190:	ce 28       	or	r12, r14
    1192:	cf 28       	or	r12, r15
    1194:	59 f4       	brne	.+22     	; 0x11ac <freeMemoryUpdate+0x8e>
    1196:	6c 01       	movw	r12, r24
    1198:	7d 01       	movw	r14, r26
    119a:	68 94       	set
    119c:	12 f8       	bld	r1, 2
    119e:	f6 94       	lsr	r15
    11a0:	e7 94       	ror	r14
    11a2:	d7 94       	ror	r13
    11a4:	c7 94       	ror	r12
    11a6:	16 94       	lsr	r1
    11a8:	d1 f7       	brne	.-12     	; 0x119e <freeMemoryUpdate+0x80>
    11aa:	0f c0       	rjmp	.+30     	; 0x11ca <freeMemoryUpdate+0xac>
  else size = (size / 8) +1;
    11ac:	6c 01       	movw	r12, r24
    11ae:	7d 01       	movw	r14, r26
    11b0:	68 94       	set
    11b2:	12 f8       	bld	r1, 2
    11b4:	f6 94       	lsr	r15
    11b6:	e7 94       	ror	r14
    11b8:	d7 94       	ror	r13
    11ba:	c7 94       	ror	r12
    11bc:	16 94       	lsr	r1
    11be:	d1 f7       	brne	.-12     	; 0x11b4 <freeMemoryUpdate+0x96>
    11c0:	8f ef       	ldi	r24, 0xFF	; 255
    11c2:	c8 1a       	sub	r12, r24
    11c4:	d8 0a       	sbc	r13, r24
    11c6:	e8 0a       	sbc	r14, r24
    11c8:	f8 0a       	sbc	r15, r24

  if(freeClusterCountUpdated)
    11ca:	80 91 ac 05 	lds	r24, 0x05AC
    11ce:	88 23       	and	r24, r24
    11d0:	d1 f0       	breq	.+52     	; 0x1206 <freeMemoryUpdate+0xe8>
  {
	freeClusters = getSetFreeCluster (TOTAL_FREE, GET, 0);
    11d2:	20 e0       	ldi	r18, 0x00	; 0
    11d4:	30 e0       	ldi	r19, 0x00	; 0
    11d6:	a9 01       	movw	r20, r18
    11d8:	60 e0       	ldi	r22, 0x00	; 0
    11da:	81 e0       	ldi	r24, 0x01	; 1
    11dc:	0e 94 80 05 	call	0xb00	; 0xb00 <getSetFreeCluster>
	if(flag == ADD)
    11e0:	c1 11       	cpse	r28, r1
    11e2:	07 c0       	rjmp	.+14     	; 0x11f2 <freeMemoryUpdate+0xd4>
  	   freeClusters = freeClusters + size;
    11e4:	9b 01       	movw	r18, r22
    11e6:	ac 01       	movw	r20, r24
    11e8:	2c 0d       	add	r18, r12
    11ea:	3d 1d       	adc	r19, r13
    11ec:	4e 1d       	adc	r20, r14
    11ee:	5f 1d       	adc	r21, r15
    11f0:	06 c0       	rjmp	.+12     	; 0x11fe <freeMemoryUpdate+0xe0>
	else  //when flag = REMOVE
	   freeClusters = freeClusters - size;
    11f2:	9b 01       	movw	r18, r22
    11f4:	ac 01       	movw	r20, r24
    11f6:	2c 19       	sub	r18, r12
    11f8:	3d 09       	sbc	r19, r13
    11fa:	4e 09       	sbc	r20, r14
    11fc:	5f 09       	sbc	r21, r15
	getSetFreeCluster (TOTAL_FREE, SET, freeClusters);
    11fe:	61 e0       	ldi	r22, 0x01	; 1
    1200:	81 e0       	ldi	r24, 0x01	; 1
    1202:	0e 94 80 05 	call	0xb00	; 0xb00 <getSetFreeCluster>
  }
}
    1206:	cf 91       	pop	r28
    1208:	ff 90       	pop	r15
    120a:	ef 90       	pop	r14
    120c:	df 90       	pop	r13
    120e:	cf 90       	pop	r12
    1210:	08 95       	ret

00001212 <findFiles>:
//return: first cluster of the file, if flag = GET_FILE
//        print file/dir list of the root directory, if flag = GET_LIST
//		  Delete the file mentioned in arg#2, if flag = DELETE
//****************************************************************************
struct dir_Structure* findFiles (unsigned char flag, unsigned char *fileName)
{
    1212:	2f 92       	push	r2
    1214:	3f 92       	push	r3
    1216:	4f 92       	push	r4
    1218:	5f 92       	push	r5
    121a:	6f 92       	push	r6
    121c:	7f 92       	push	r7
    121e:	8f 92       	push	r8
    1220:	9f 92       	push	r9
    1222:	af 92       	push	r10
    1224:	bf 92       	push	r11
    1226:	cf 92       	push	r12
    1228:	df 92       	push	r13
    122a:	ef 92       	push	r14
    122c:	ff 92       	push	r15
    122e:	0f 93       	push	r16
    1230:	1f 93       	push	r17
    1232:	cf 93       	push	r28
    1234:	df 93       	push	r29
    1236:	cd b7       	in	r28, 0x3d	; 61
    1238:	de b7       	in	r29, 0x3e	; 62
    123a:	62 97       	sbiw	r28, 0x12	; 18
    123c:	0f b6       	in	r0, 0x3f	; 63
    123e:	f8 94       	cli
    1240:	de bf       	out	0x3e, r29	; 62
    1242:	0f be       	out	0x3f, r0	; 63
    1244:	cd bf       	out	0x3d, r28	; 61
    1246:	88 87       	std	Y+8, r24	; 0x08
    1248:	7b 83       	std	Y+3, r23	; 0x03
    124a:	6a 83       	std	Y+2, r22	; 0x02
unsigned long cluster, sector, firstSector, firstCluster, nextCluster;
struct dir_Structure *dir;
unsigned int i;
unsigned char j;

cluster = rootCluster; //root cluster
    124c:	80 91 2c 03 	lds	r24, 0x032C
    1250:	90 91 2d 03 	lds	r25, 0x032D
    1254:	a0 91 2e 03 	lds	r26, 0x032E
    1258:	b0 91 2f 03 	lds	r27, 0x032F
    125c:	8d 87       	std	Y+13, r24	; 0x0d
    125e:	9e 87       	std	Y+14, r25	; 0x0e
    1260:	af 87       	std	Y+15, r26	; 0x0f
    1262:	b8 8b       	std	Y+16, r27	; 0x10
		      transmitString_F(PSTR("File does not exist!"));
		  return 0;   
		}
		if((dir->name[0] != DELETED) && (dir->attrib != ATTR_LONG_NAME))
        {
          if((flag == GET_FILE) || (flag == DELETE))
    1264:	98 85       	ldd	r25, Y+8	; 0x08
    1266:	91 50       	subi	r25, 0x01	; 1
    1268:	99 83       	std	Y+1, r25	; 0x01
			  }
            }
          }
          else  //when flag = GET_LIST
		  {
		     TX_NEWLINE;
    126a:	44 24       	eor	r4, r4
    126c:	43 94       	inc	r4
    126e:	51 2c       	mov	r5, r1
//Arguments: #1 - flag: GET_LIST, GET_FILE or DELETE #2 - pointer to file name (0 if arg#1 is GET_LIST)
//return: first cluster of the file, if flag = GET_FILE
//        print file/dir list of the root directory, if flag = GET_LIST
//		  Delete the file mentioned in arg#2, if flag = DELETE
//****************************************************************************
struct dir_Structure* findFiles (unsigned char flag, unsigned char *fileName)
    1270:	3b 01       	movw	r6, r22
    1272:	a1 e0       	ldi	r26, 0x01	; 1
    1274:	b0 e0       	ldi	r27, 0x00	; 0
    1276:	6a 0e       	add	r6, r26
    1278:	7b 1e       	adc	r7, r27
    127a:	13 01       	movw	r2, r6

cluster = rootCluster; //root cluster

while(1)
{
   firstSector = getFirstSector (cluster);
    127c:	6d 85       	ldd	r22, Y+13	; 0x0d
    127e:	7e 85       	ldd	r23, Y+14	; 0x0e
    1280:	8f 85       	ldd	r24, Y+15	; 0x0f
    1282:	98 89       	ldd	r25, Y+16	; 0x10
    1284:	0e 94 d9 04 	call	0x9b2	; 0x9b2 <getFirstSector>
    1288:	6c 83       	std	Y+4, r22	; 0x04
    128a:	7d 83       	std	Y+5, r23	; 0x05
    128c:	8e 83       	std	Y+6, r24	; 0x06
    128e:	9f 83       	std	Y+7, r25	; 0x07

   for(sector = 0; sector < sectorPerCluster; sector++)
    1290:	80 91 36 05 	lds	r24, 0x0536
    1294:	90 91 37 05 	lds	r25, 0x0537
    1298:	89 2b       	or	r24, r25
    129a:	09 f4       	brne	.+2      	; 0x129e <findFiles+0x8c>
    129c:	85 c1       	rjmp	.+778    	; 0x15a8 <findFiles+0x396>
    129e:	c1 2c       	mov	r12, r1
    12a0:	d1 2c       	mov	r13, r1
    12a2:	76 01       	movw	r14, r12

     for(i=0; i<bytesPerSector; i+=32)
     {
	    dir = (struct dir_Structure *) &buffer[i];

        if(dir->name[0] == EMPTY) //indicates end of the file list of the directory
    12a4:	0f 2e       	mov	r0, r31
    12a6:	f6 e3       	ldi	r31, 0x36	; 54
    12a8:	6f 2e       	mov	r6, r31
    12aa:	f3 e0       	ldi	r31, 0x03	; 3
    12ac:	7f 2e       	mov	r7, r31
    12ae:	f0 2d       	mov	r31, r0
{
   firstSector = getFirstSector (cluster);

   for(sector = 0; sector < sectorPerCluster; sector++)
   {
     SD_readSingleBlock (firstSector + sector);
    12b0:	8c 80       	ldd	r8, Y+4	; 0x04
    12b2:	9d 80       	ldd	r9, Y+5	; 0x05
    12b4:	ae 80       	ldd	r10, Y+6	; 0x06
    12b6:	bf 80       	ldd	r11, Y+7	; 0x07
    12b8:	8c 0c       	add	r8, r12
    12ba:	9d 1c       	adc	r9, r13
    12bc:	ae 1c       	adc	r10, r14
    12be:	bf 1c       	adc	r11, r15
    12c0:	c5 01       	movw	r24, r10
    12c2:	b4 01       	movw	r22, r8
    12c4:	0e 94 0d 17 	call	0x2e1a	; 0x2e1a <SD_readSingleBlock>
	

     for(i=0; i<bytesPerSector; i+=32)
    12c8:	80 91 26 03 	lds	r24, 0x0326
    12cc:	90 91 27 03 	lds	r25, 0x0327
    12d0:	89 2b       	or	r24, r25
    12d2:	09 f4       	brne	.+2      	; 0x12d6 <findFiles+0xc4>
    12d4:	58 c1       	rjmp	.+688    	; 0x1586 <findFiles+0x374>
     {
	    dir = (struct dir_Structure *) &buffer[i];

        if(dir->name[0] == EMPTY) //indicates end of the file list of the directory
    12d6:	f3 01       	movw	r30, r6
    12d8:	80 81       	ld	r24, Z
    12da:	88 23       	and	r24, r24
    12dc:	a1 f0       	breq	.+40     	; 0x1306 <findFiles+0xf4>
   for(sector = 0; sector < sectorPerCluster; sector++)
   {
     SD_readSingleBlock (firstSector + sector);
	

     for(i=0; i<bytesPerSector; i+=32)
    12de:	00 e0       	ldi	r16, 0x00	; 0
    12e0:	10 e0       	ldi	r17, 0x00	; 0
    12e2:	7a 8a       	std	Y+18, r7	; 0x12
    12e4:	69 8a       	std	Y+17, r6	; 0x11
    12e6:	c9 86       	std	Y+9, r12	; 0x09
    12e8:	da 86       	std	Y+10, r13	; 0x0a
    12ea:	eb 86       	std	Y+11, r14	; 0x0b
    12ec:	fc 86       	std	Y+12, r15	; 0x0c
    12ee:	ca 80       	ldd	r12, Y+2	; 0x02
    12f0:	db 80       	ldd	r13, Y+3	; 0x03
    12f2:	14 c0       	rjmp	.+40     	; 0x131c <findFiles+0x10a>
     {
	    dir = (struct dir_Structure *) &buffer[i];
    12f4:	98 01       	movw	r18, r16
    12f6:	2a 5c       	subi	r18, 0xCA	; 202
    12f8:	3c 4f       	sbci	r19, 0xFC	; 252
    12fa:	3a 8b       	std	Y+18, r19	; 0x12
    12fc:	29 8b       	std	Y+17, r18	; 0x11

        if(dir->name[0] == EMPTY) //indicates end of the file list of the directory
    12fe:	d9 01       	movw	r26, r18
    1300:	8c 91       	ld	r24, X
    1302:	81 11       	cpse	r24, r1
    1304:	0b c0       	rjmp	.+22     	; 0x131c <findFiles+0x10a>
		{
		  if(flag == DELETE)
    1306:	b8 85       	ldd	r27, Y+8	; 0x08
    1308:	b2 30       	cpi	r27, 0x02	; 2
    130a:	09 f0       	breq	.+2      	; 0x130e <findFiles+0xfc>
    130c:	6e c1       	rjmp	.+732    	; 0x15ea <findFiles+0x3d8>
		      transmitString_F(PSTR("File does not exist!"));
    130e:	84 e5       	ldi	r24, 0x54	; 84
    1310:	90 e0       	ldi	r25, 0x00	; 0
    1312:	0e 94 ee 17 	call	0x2fdc	; 0x2fdc <transmitString_F>
		  return 0;   
    1316:	a1 2c       	mov	r10, r1
    1318:	b1 2c       	mov	r11, r1
    131a:	6c c1       	rjmp	.+728    	; 0x15f4 <findFiles+0x3e2>
		}
		if((dir->name[0] != DELETED) && (dir->attrib != ATTR_LONG_NAME))
    131c:	85 3e       	cpi	r24, 0xE5	; 229
    131e:	09 f4       	brne	.+2      	; 0x1322 <findFiles+0x110>
    1320:	24 c1       	rjmp	.+584    	; 0x156a <findFiles+0x358>
    1322:	e9 89       	ldd	r30, Y+17	; 0x11
    1324:	fa 89       	ldd	r31, Y+18	; 0x12
    1326:	83 85       	ldd	r24, Z+11	; 0x0b
    1328:	8f 30       	cpi	r24, 0x0F	; 15
    132a:	09 f4       	brne	.+2      	; 0x132e <findFiles+0x11c>
    132c:	1e c1       	rjmp	.+572    	; 0x156a <findFiles+0x358>
        {
          if((flag == GET_FILE) || (flag == DELETE))
    132e:	f9 81       	ldd	r31, Y+1	; 0x01
    1330:	f2 30       	cpi	r31, 0x02	; 2
    1332:	08 f0       	brcs	.+2      	; 0x1336 <findFiles+0x124>
    1334:	cf c0       	rjmp	.+414    	; 0x14d4 <findFiles+0x2c2>
          {
            for(j=0; j<11; j++)
            if(dir->name[j] != fileName[j]) break;
    1336:	a9 89       	ldd	r26, Y+17	; 0x11
    1338:	ba 89       	ldd	r27, Y+18	; 0x12
    133a:	9c 91       	ld	r25, X
    133c:	f6 01       	movw	r30, r12
    133e:	80 81       	ld	r24, Z
    1340:	98 13       	cpse	r25, r24
    1342:	13 c1       	rjmp	.+550    	; 0x156a <findFiles+0x358>
//Arguments: #1 - flag: GET_LIST, GET_FILE or DELETE #2 - pointer to file name (0 if arg#1 is GET_LIST)
//return: first cluster of the file, if flag = GET_FILE
//        print file/dir list of the root directory, if flag = GET_LIST
//		  Delete the file mentioned in arg#2, if flag = DELETE
//****************************************************************************
struct dir_Structure* findFiles (unsigned char flag, unsigned char *fileName)
    1344:	11 96       	adiw	r26, 0x01	; 1
    1346:	f1 01       	movw	r30, r2
		}
		if((dir->name[0] != DELETED) && (dir->attrib != ATTR_LONG_NAME))
        {
          if((flag == GET_FILE) || (flag == DELETE))
          {
            for(j=0; j<11; j++)
    1348:	84 2d       	mov	r24, r4
    134a:	49 89       	ldd	r20, Y+17	; 0x11
    134c:	5a 89       	ldd	r21, Y+18	; 0x12
            if(dir->name[j] != fileName[j]) break;
    134e:	2d 91       	ld	r18, X+
    1350:	91 91       	ld	r25, Z+
    1352:	29 13       	cpse	r18, r25
    1354:	09 c0       	rjmp	.+18     	; 0x1368 <findFiles+0x156>
		}
		if((dir->name[0] != DELETED) && (dir->attrib != ATTR_LONG_NAME))
        {
          if((flag == GET_FILE) || (flag == DELETE))
          {
            for(j=0; j<11; j++)
    1356:	8f 5f       	subi	r24, 0xFF	; 255
    1358:	8b 30       	cpi	r24, 0x0B	; 11
    135a:	c9 f7       	brne	.-14     	; 0x134e <findFiles+0x13c>
    135c:	75 01       	movw	r14, r10
    135e:	64 01       	movw	r12, r8
    1360:	5a 01       	movw	r10, r20
    1362:	18 01       	movw	r2, r16
    1364:	8a 01       	movw	r16, r20
    1366:	0a c0       	rjmp	.+20     	; 0x137c <findFiles+0x16a>
    1368:	5a 8b       	std	Y+18, r21	; 0x12
    136a:	49 8b       	std	Y+17, r20	; 0x11
            if(dir->name[j] != fileName[j]) break;
            if(j == 11)
    136c:	8b 30       	cpi	r24, 0x0B	; 11
    136e:	09 f0       	breq	.+2      	; 0x1372 <findFiles+0x160>
    1370:	fc c0       	rjmp	.+504    	; 0x156a <findFiles+0x358>
    1372:	75 01       	movw	r14, r10
    1374:	64 01       	movw	r12, r8
    1376:	5a 01       	movw	r10, r20
    1378:	18 01       	movw	r2, r16
    137a:	8a 01       	movw	r16, r20
			{
			  if(flag == GET_FILE)
    137c:	f8 85       	ldd	r31, Y+8	; 0x08
    137e:	f1 30       	cpi	r31, 0x01	; 1
    1380:	d9 f5       	brne	.+118    	; 0x13f8 <findFiles+0x1e6>
              {
			    appendFileSector = firstSector + sector;
    1382:	c0 92 ad 05 	sts	0x05AD, r12
    1386:	d0 92 ae 05 	sts	0x05AE, r13
    138a:	e0 92 af 05 	sts	0x05AF, r14
    138e:	f0 92 b0 05 	sts	0x05B0, r15
				appendFileLocation = i;
    1392:	c1 01       	movw	r24, r2
    1394:	a0 e0       	ldi	r26, 0x00	; 0
    1396:	b0 e0       	ldi	r27, 0x00	; 0
    1398:	80 93 18 03 	sts	0x0318, r24
    139c:	90 93 19 03 	sts	0x0319, r25
    13a0:	a0 93 1a 03 	sts	0x031A, r26
    13a4:	b0 93 1b 03 	sts	0x031B, r27
				appendStartCluster = (((unsigned long) dir->firstClusterHI) << 16) | dir->firstClusterLO;
    13a8:	d8 01       	movw	r26, r16
    13aa:	54 96       	adiw	r26, 0x14	; 20
    13ac:	8d 91       	ld	r24, X+
    13ae:	9c 91       	ld	r25, X
    13b0:	55 97       	sbiw	r26, 0x15	; 21
    13b2:	a0 e0       	ldi	r26, 0x00	; 0
    13b4:	b0 e0       	ldi	r27, 0x00	; 0
    13b6:	dc 01       	movw	r26, r24
    13b8:	99 27       	eor	r25, r25
    13ba:	88 27       	eor	r24, r24
    13bc:	f8 01       	movw	r30, r16
    13be:	42 8d       	ldd	r20, Z+26	; 0x1a
    13c0:	53 8d       	ldd	r21, Z+27	; 0x1b
    13c2:	60 e0       	ldi	r22, 0x00	; 0
    13c4:	70 e0       	ldi	r23, 0x00	; 0
    13c6:	84 2b       	or	r24, r20
    13c8:	95 2b       	or	r25, r21
    13ca:	a6 2b       	or	r26, r22
    13cc:	b7 2b       	or	r27, r23
    13ce:	80 93 43 05 	sts	0x0543, r24
    13d2:	90 93 44 05 	sts	0x0544, r25
    13d6:	a0 93 45 05 	sts	0x0545, r26
    13da:	b0 93 46 05 	sts	0x0546, r27
				fileSize = dir->fileSize;
    13de:	84 8d       	ldd	r24, Z+28	; 0x1c
    13e0:	95 8d       	ldd	r25, Z+29	; 0x1d
    13e2:	a6 8d       	ldd	r26, Z+30	; 0x1e
    13e4:	b7 8d       	ldd	r27, Z+31	; 0x1f
    13e6:	80 93 22 03 	sts	0x0322, r24
    13ea:	90 93 23 03 	sts	0x0323, r25
    13ee:	a0 93 24 03 	sts	0x0324, r26
    13f2:	b0 93 25 03 	sts	0x0325, r27
			    return (dir);
    13f6:	fe c0       	rjmp	.+508    	; 0x15f4 <findFiles+0x3e2>
			  }	
			  else    //when flag = DELETE
			  {
			     TX_NEWLINE;
    13f8:	85 e9       	ldi	r24, 0x95	; 149
    13fa:	90 e0       	ldi	r25, 0x00	; 0
    13fc:	0e 94 db 17 	call	0x2fb6	; 0x2fb6 <usart_write_str>
				 transmitString_F(PSTR("Deleting.."));
    1400:	89 e6       	ldi	r24, 0x69	; 105
    1402:	90 e0       	ldi	r25, 0x00	; 0
    1404:	0e 94 ee 17 	call	0x2fdc	; 0x2fdc <transmitString_F>
				 TX_NEWLINE;
    1408:	85 e9       	ldi	r24, 0x95	; 149
    140a:	90 e0       	ldi	r25, 0x00	; 0
    140c:	0e 94 db 17 	call	0x2fb6	; 0x2fb6 <usart_write_str>
				 TX_NEWLINE;
    1410:	85 e9       	ldi	r24, 0x95	; 149
    1412:	90 e0       	ldi	r25, 0x00	; 0
    1414:	0e 94 db 17 	call	0x2fb6	; 0x2fb6 <usart_write_str>
				 firstCluster = (((unsigned long) dir->firstClusterHI) << 16) | dir->firstClusterLO;
    1418:	d8 01       	movw	r26, r16
    141a:	54 96       	adiw	r26, 0x14	; 20
    141c:	8d 90       	ld	r8, X+
    141e:	9c 90       	ld	r9, X
    1420:	55 97       	sbiw	r26, 0x15	; 21
    1422:	a1 2c       	mov	r10, r1
    1424:	b1 2c       	mov	r11, r1
    1426:	54 01       	movw	r10, r8
    1428:	99 24       	eor	r9, r9
    142a:	88 24       	eor	r8, r8
    142c:	5a 96       	adiw	r26, 0x1a	; 26
    142e:	8d 91       	ld	r24, X+
    1430:	9c 91       	ld	r25, X
    1432:	5b 97       	sbiw	r26, 0x1b	; 27
    1434:	a0 e0       	ldi	r26, 0x00	; 0
    1436:	b0 e0       	ldi	r27, 0x00	; 0
    1438:	88 2a       	or	r8, r24
    143a:	99 2a       	or	r9, r25
    143c:	aa 2a       	or	r10, r26
    143e:	bb 2a       	or	r11, r27
                
				 //mark file as 'deleted' in FAT table
				 dir->name[0] = DELETED;    
    1440:	85 ee       	ldi	r24, 0xE5	; 229
    1442:	f8 01       	movw	r30, r16
    1444:	80 83       	st	Z, r24
				 SD_writeSingleBlock (firstSector+sector);
    1446:	c7 01       	movw	r24, r14
    1448:	b6 01       	movw	r22, r12
    144a:	0e 94 3e 17 	call	0x2e7c	; 0x2e7c <SD_writeSingleBlock>
				 			 
				 freeMemoryUpdate (ADD, dir->fileSize);
    144e:	d8 01       	movw	r26, r16
    1450:	5c 96       	adiw	r26, 0x1c	; 28
    1452:	4d 91       	ld	r20, X+
    1454:	5d 91       	ld	r21, X+
    1456:	6d 91       	ld	r22, X+
    1458:	7c 91       	ld	r23, X
    145a:	5f 97       	sbiw	r26, 0x1f	; 31
    145c:	80 e0       	ldi	r24, 0x00	; 0
    145e:	0e 94 8f 08 	call	0x111e	; 0x111e <freeMemoryUpdate>

				 //update next free cluster entry in FSinfo sector
				 cluster = getSetFreeCluster (NEXT_FREE, GET, 0); 
    1462:	20 e0       	ldi	r18, 0x00	; 0
    1464:	30 e0       	ldi	r19, 0x00	; 0
    1466:	a9 01       	movw	r20, r18
    1468:	60 e0       	ldi	r22, 0x00	; 0
    146a:	82 e0       	ldi	r24, 0x02	; 2
    146c:	0e 94 80 05 	call	0xb00	; 0xb00 <getSetFreeCluster>
				 if(firstCluster < cluster)
    1470:	86 16       	cp	r8, r22
    1472:	97 06       	cpc	r9, r23
    1474:	a8 06       	cpc	r10, r24
    1476:	b9 06       	cpc	r11, r25
    1478:	30 f4       	brcc	.+12     	; 0x1486 <findFiles+0x274>
				     getSetFreeCluster (NEXT_FREE, SET, firstCluster);
    147a:	a5 01       	movw	r20, r10
    147c:	94 01       	movw	r18, r8
    147e:	61 e0       	ldi	r22, 0x01	; 1
    1480:	82 e0       	ldi	r24, 0x02	; 2
    1482:	0e 94 80 05 	call	0xb00	; 0xb00 <getSetFreeCluster>

				 //mark all the clusters allocated to the file as 'free'
			     while(1)  
			     {
			        nextCluster = getSetNextCluster (firstCluster, GET, 0);
    1486:	00 e0       	ldi	r16, 0x00	; 0
    1488:	10 e0       	ldi	r17, 0x00	; 0
    148a:	98 01       	movw	r18, r16
    148c:	40 e0       	ldi	r20, 0x00	; 0
    148e:	c5 01       	movw	r24, r10
    1490:	b4 01       	movw	r22, r8
    1492:	0e 94 04 05 	call	0xa08	; 0xa08 <getSetNextCluster>
    1496:	e6 2e       	mov	r14, r22
    1498:	f7 2e       	mov	r15, r23
    149a:	c8 2e       	mov	r12, r24
    149c:	d9 2e       	mov	r13, r25
					getSetNextCluster (firstCluster, SET, 0);
    149e:	00 e0       	ldi	r16, 0x00	; 0
    14a0:	10 e0       	ldi	r17, 0x00	; 0
    14a2:	98 01       	movw	r18, r16
    14a4:	41 e0       	ldi	r20, 0x01	; 1
    14a6:	c5 01       	movw	r24, r10
    14a8:	b4 01       	movw	r22, r8
    14aa:	0e 94 04 05 	call	0xa08	; 0xa08 <getSetNextCluster>
					if(nextCluster > 0x0ffffff6) 
					   {transmitString_F(PSTR("File deleted!"));return 0;}
					firstCluster = nextCluster;
    14ae:	8e 2c       	mov	r8, r14
    14b0:	9f 2c       	mov	r9, r15
    14b2:	ac 2c       	mov	r10, r12
    14b4:	bd 2c       	mov	r11, r13
				 //mark all the clusters allocated to the file as 'free'
			     while(1)  
			     {
			        nextCluster = getSetNextCluster (firstCluster, GET, 0);
					getSetNextCluster (firstCluster, SET, 0);
					if(nextCluster > 0x0ffffff6) 
    14b6:	b7 ef       	ldi	r27, 0xF7	; 247
    14b8:	8b 16       	cp	r8, r27
    14ba:	bf ef       	ldi	r27, 0xFF	; 255
    14bc:	9b 06       	cpc	r9, r27
    14be:	ab 06       	cpc	r10, r27
    14c0:	bf e0       	ldi	r27, 0x0F	; 15
    14c2:	bb 06       	cpc	r11, r27
    14c4:	00 f3       	brcs	.-64     	; 0x1486 <findFiles+0x274>
					   {transmitString_F(PSTR("File deleted!"));return 0;}
    14c6:	84 e7       	ldi	r24, 0x74	; 116
    14c8:	90 e0       	ldi	r25, 0x00	; 0
    14ca:	0e 94 ee 17 	call	0x2fdc	; 0x2fdc <transmitString_F>
    14ce:	a1 2c       	mov	r10, r1
    14d0:	b1 2c       	mov	r11, r1
    14d2:	90 c0       	rjmp	.+288    	; 0x15f4 <findFiles+0x3e2>
			  }
            }
          }
          else  //when flag = GET_LIST
		  {
		     TX_NEWLINE;
    14d4:	85 e9       	ldi	r24, 0x95	; 149
    14d6:	90 e0       	ldi	r25, 0x00	; 0
    14d8:	0e 94 db 17 	call	0x2fb6	; 0x2fb6 <usart_write_str>
    14dc:	c8 01       	movw	r24, r16
    14de:	04 2d       	mov	r16, r4
    14e0:	15 2d       	mov	r17, r5
    14e2:	7c 01       	movw	r14, r24
    14e4:	02 c0       	rjmp	.+4      	; 0x14ea <findFiles+0x2d8>
    14e6:	1f 5f       	subi	r17, 0xFF	; 255
    14e8:	0f 5f       	subi	r16, 0xFF	; 255
			 for(j=0; j<11; j++)
		     {
			   if(j == 8) transmitByte(' ');
    14ea:	18 30       	cpi	r17, 0x08	; 8
    14ec:	59 f4       	brne	.+22     	; 0x1504 <findFiles+0x2f2>
    14ee:	80 e2       	ldi	r24, 0x20	; 32
    14f0:	0e 94 ea 17 	call	0x2fd4	; 0x2fd4 <transmitByte>
			   transmitByte (dir->name[j]);
    14f4:	e9 89       	ldd	r30, Y+17	; 0x11
    14f6:	fa 89       	ldd	r31, Y+18	; 0x12
    14f8:	e1 0f       	add	r30, r17
    14fa:	f1 1d       	adc	r31, r1
    14fc:	80 81       	ld	r24, Z
    14fe:	0e 94 ea 17 	call	0x2fd4	; 0x2fd4 <transmitByte>
    1502:	f1 cf       	rjmp	.-30     	; 0x14e6 <findFiles+0x2d4>
    1504:	e9 89       	ldd	r30, Y+17	; 0x11
    1506:	fa 89       	ldd	r31, Y+18	; 0x12
    1508:	e1 0f       	add	r30, r17
    150a:	f1 1d       	adc	r31, r1
    150c:	80 81       	ld	r24, Z
    150e:	0e 94 ea 17 	call	0x2fd4	; 0x2fd4 <transmitByte>
            }
          }
          else  //when flag = GET_LIST
		  {
		     TX_NEWLINE;
			 for(j=0; j<11; j++)
    1512:	0b 30       	cpi	r16, 0x0B	; 11
    1514:	40 f3       	brcs	.-48     	; 0x14e6 <findFiles+0x2d4>
    1516:	87 01       	movw	r16, r14
		     {
			   if(j == 8) transmitByte(' ');
			   transmitByte (dir->name[j]);
			 }
		     transmitString_F (PSTR("   "));
    1518:	82 e8       	ldi	r24, 0x82	; 130
    151a:	90 e0       	ldi	r25, 0x00	; 0
    151c:	0e 94 ee 17 	call	0x2fdc	; 0x2fdc <transmitString_F>
		     if((dir->attrib != 0x10) && (dir->attrib != 0x08))
    1520:	a9 89       	ldd	r26, Y+17	; 0x11
    1522:	ba 89       	ldd	r27, Y+18	; 0x12
    1524:	1b 96       	adiw	r26, 0x0b	; 11
    1526:	8c 91       	ld	r24, X
    1528:	80 31       	cpi	r24, 0x10	; 16
    152a:	a1 f0       	breq	.+40     	; 0x1554 <findFiles+0x342>
    152c:	88 30       	cpi	r24, 0x08	; 8
    152e:	b9 f0       	breq	.+46     	; 0x155e <findFiles+0x34c>
			 {
			     transmitString_F (PSTR("FILE" ));
    1530:	86 e8       	ldi	r24, 0x86	; 134
    1532:	90 e0       	ldi	r25, 0x00	; 0
    1534:	0e 94 ee 17 	call	0x2fdc	; 0x2fdc <transmitString_F>
		         transmitString_F (PSTR("   "));
    1538:	8b e8       	ldi	r24, 0x8B	; 139
    153a:	90 e0       	ldi	r25, 0x00	; 0
    153c:	0e 94 ee 17 	call	0x2fdc	; 0x2fdc <transmitString_F>
			     displayMemory (LOW, dir->fileSize);
    1540:	e9 89       	ldd	r30, Y+17	; 0x11
    1542:	fa 89       	ldd	r31, Y+18	; 0x12
    1544:	44 8d       	ldd	r20, Z+28	; 0x1c
    1546:	55 8d       	ldd	r21, Z+29	; 0x1d
    1548:	66 8d       	ldd	r22, Z+30	; 0x1e
    154a:	77 8d       	ldd	r23, Z+31	; 0x1f
    154c:	85 2d       	mov	r24, r5
    154e:	0e 94 24 08 	call	0x1048	; 0x1048 <displayMemory>
    1552:	0b c0       	rjmp	.+22     	; 0x156a <findFiles+0x358>
			 }
			 else
			   transmitString_F ((dir->attrib == 0x10)? PSTR("DIR") : PSTR("ROOT"));
    1554:	2f e8       	ldi	r18, 0x8F	; 143
    1556:	30 e0       	ldi	r19, 0x00	; 0
    1558:	82 2f       	mov	r24, r18
    155a:	93 2f       	mov	r25, r19
    155c:	04 c0       	rjmp	.+8      	; 0x1566 <findFiles+0x354>
    155e:	a3 e9       	ldi	r26, 0x93	; 147
    1560:	b0 e0       	ldi	r27, 0x00	; 0
    1562:	8a 2f       	mov	r24, r26
    1564:	9b 2f       	mov	r25, r27
    1566:	0e 94 ee 17 	call	0x2fdc	; 0x2fdc <transmitString_F>
   for(sector = 0; sector < sectorPerCluster; sector++)
   {
     SD_readSingleBlock (firstSector + sector);
	

     for(i=0; i<bytesPerSector; i+=32)
    156a:	00 5e       	subi	r16, 0xE0	; 224
    156c:	1f 4f       	sbci	r17, 0xFF	; 255
    156e:	80 91 26 03 	lds	r24, 0x0326
    1572:	90 91 27 03 	lds	r25, 0x0327
    1576:	08 17       	cp	r16, r24
    1578:	19 07       	cpc	r17, r25
    157a:	08 f4       	brcc	.+2      	; 0x157e <findFiles+0x36c>
    157c:	bb ce       	rjmp	.-650    	; 0x12f4 <findFiles+0xe2>
    157e:	c9 84       	ldd	r12, Y+9	; 0x09
    1580:	da 84       	ldd	r13, Y+10	; 0x0a
    1582:	eb 84       	ldd	r14, Y+11	; 0x0b
    1584:	fc 84       	ldd	r15, Y+12	; 0x0c

while(1)
{
   firstSector = getFirstSector (cluster);

   for(sector = 0; sector < sectorPerCluster; sector++)
    1586:	bf ef       	ldi	r27, 0xFF	; 255
    1588:	cb 1a       	sub	r12, r27
    158a:	db 0a       	sbc	r13, r27
    158c:	eb 0a       	sbc	r14, r27
    158e:	fb 0a       	sbc	r15, r27
    1590:	80 91 36 05 	lds	r24, 0x0536
    1594:	90 91 37 05 	lds	r25, 0x0537
    1598:	a0 e0       	ldi	r26, 0x00	; 0
    159a:	b0 e0       	ldi	r27, 0x00	; 0
    159c:	c8 16       	cp	r12, r24
    159e:	d9 06       	cpc	r13, r25
    15a0:	ea 06       	cpc	r14, r26
    15a2:	fb 06       	cpc	r15, r27
    15a4:	08 f4       	brcc	.+2      	; 0x15a8 <findFiles+0x396>
    15a6:	84 ce       	rjmp	.-760    	; 0x12b0 <findFiles+0x9e>
		  }
       }
     }
   }

   cluster = (getSetNextCluster (cluster, GET, 0));
    15a8:	00 e0       	ldi	r16, 0x00	; 0
    15aa:	10 e0       	ldi	r17, 0x00	; 0
    15ac:	98 01       	movw	r18, r16
    15ae:	40 e0       	ldi	r20, 0x00	; 0
    15b0:	6d 85       	ldd	r22, Y+13	; 0x0d
    15b2:	7e 85       	ldd	r23, Y+14	; 0x0e
    15b4:	8f 85       	ldd	r24, Y+15	; 0x0f
    15b6:	98 89       	ldd	r25, Y+16	; 0x10
    15b8:	0e 94 04 05 	call	0xa08	; 0xa08 <getSetNextCluster>
    15bc:	6d 87       	std	Y+13, r22	; 0x0d
    15be:	7e 87       	std	Y+14, r23	; 0x0e
    15c0:	8f 87       	std	Y+15, r24	; 0x0f
    15c2:	98 8b       	std	Y+16, r25	; 0x10

   if(cluster > 0x0ffffff6)
    15c4:	67 3f       	cpi	r22, 0xF7	; 247
    15c6:	ef ef       	ldi	r30, 0xFF	; 255
    15c8:	7e 07       	cpc	r23, r30
    15ca:	8e 07       	cpc	r24, r30
    15cc:	ef e0       	ldi	r30, 0x0F	; 15
    15ce:	9e 07       	cpc	r25, r30
    15d0:	78 f4       	brcc	.+30     	; 0x15f0 <findFiles+0x3de>
   	 return 0;
   if(cluster == 0) 
    15d2:	67 2b       	or	r22, r23
    15d4:	68 2b       	or	r22, r24
    15d6:	69 2b       	or	r22, r25
    15d8:	09 f0       	breq	.+2      	; 0x15dc <findFiles+0x3ca>
    15da:	50 ce       	rjmp	.-864    	; 0x127c <findFiles+0x6a>
   {transmitString_F(PSTR("Error in getting cluster"));  return 0;}
    15dc:	88 e9       	ldi	r24, 0x98	; 152
    15de:	90 e0       	ldi	r25, 0x00	; 0
    15e0:	0e 94 ee 17 	call	0x2fdc	; 0x2fdc <transmitString_F>
    15e4:	a1 2c       	mov	r10, r1
    15e6:	b1 2c       	mov	r11, r1
    15e8:	05 c0       	rjmp	.+10     	; 0x15f4 <findFiles+0x3e2>

        if(dir->name[0] == EMPTY) //indicates end of the file list of the directory
		{
		  if(flag == DELETE)
		      transmitString_F(PSTR("File does not exist!"));
		  return 0;   
    15ea:	a1 2c       	mov	r10, r1
    15ec:	b1 2c       	mov	r11, r1
    15ee:	02 c0       	rjmp	.+4      	; 0x15f4 <findFiles+0x3e2>
   }

   cluster = (getSetNextCluster (cluster, GET, 0));

   if(cluster > 0x0ffffff6)
   	 return 0;
    15f0:	a1 2c       	mov	r10, r1
    15f2:	b1 2c       	mov	r11, r1
   if(cluster == 0) 
   {transmitString_F(PSTR("Error in getting cluster"));  return 0;}
 }
return 0;
}
    15f4:	8a 2d       	mov	r24, r10
    15f6:	9b 2d       	mov	r25, r11
    15f8:	62 96       	adiw	r28, 0x12	; 18
    15fa:	0f b6       	in	r0, 0x3f	; 63
    15fc:	f8 94       	cli
    15fe:	de bf       	out	0x3e, r29	; 62
    1600:	0f be       	out	0x3f, r0	; 63
    1602:	cd bf       	out	0x3d, r28	; 61
    1604:	df 91       	pop	r29
    1606:	cf 91       	pop	r28
    1608:	1f 91       	pop	r17
    160a:	0f 91       	pop	r16
    160c:	ff 90       	pop	r15
    160e:	ef 90       	pop	r14
    1610:	df 90       	pop	r13
    1612:	cf 90       	pop	r12
    1614:	bf 90       	pop	r11
    1616:	af 90       	pop	r10
    1618:	9f 90       	pop	r9
    161a:	8f 90       	pop	r8
    161c:	7f 90       	pop	r7
    161e:	6f 90       	pop	r6
    1620:	5f 90       	pop	r5
    1622:	4f 90       	pop	r4
    1624:	3f 90       	pop	r3
    1626:	2f 90       	pop	r2
    1628:	08 95       	ret

0000162a <readFile>:
//return: 0, if normal operation or flag is READ
//	      1, if file is already existing and flag = VERIFY; or if flag=READ and file does not exist
//		  2, if file name is incompatible
//***************************************************************************
unsigned char readFile (unsigned char flag, unsigned char *fileName)
{
    162a:	3f 92       	push	r3
    162c:	4f 92       	push	r4
    162e:	5f 92       	push	r5
    1630:	6f 92       	push	r6
    1632:	7f 92       	push	r7
    1634:	8f 92       	push	r8
    1636:	9f 92       	push	r9
    1638:	af 92       	push	r10
    163a:	bf 92       	push	r11
    163c:	cf 92       	push	r12
    163e:	df 92       	push	r13
    1640:	ef 92       	push	r14
    1642:	ff 92       	push	r15
    1644:	0f 93       	push	r16
    1646:	1f 93       	push	r17
    1648:	cf 93       	push	r28
    164a:	df 93       	push	r29
    164c:	cd b7       	in	r28, 0x3d	; 61
    164e:	de b7       	in	r29, 0x3e	; 62
    1650:	2c 97       	sbiw	r28, 0x0c	; 12
    1652:	0f b6       	in	r0, 0x3f	; 63
    1654:	f8 94       	cli
    1656:	de bf       	out	0x3e, r29	; 62
    1658:	0f be       	out	0x3f, r0	; 63
    165a:	cd bf       	out	0x3d, r28	; 61
    165c:	18 2f       	mov	r17, r24
    165e:	7b 01       	movw	r14, r22
struct dir_Structure *dir;
unsigned long cluster, byteCounter = 0, fileSize, firstSector;
unsigned int k;
unsigned char j, error;

error = convertFileName (fileName); //convert fileName into FAT format
    1660:	cb 01       	movw	r24, r22
    1662:	0e 94 f0 06 	call	0xde0	; 0xde0 <convertFileName>
if(error) return 2;
    1666:	81 11       	cpse	r24, r1
    1668:	ad c0       	rjmp	.+346    	; 0x17c4 <readFile+0x19a>

dir = findFiles (GET_FILE, fileName); //get the file location
    166a:	b7 01       	movw	r22, r14
    166c:	81 e0       	ldi	r24, 0x01	; 1
    166e:	0e 94 09 09 	call	0x1212	; 0x1212 <findFiles>
if(dir == 0) 
    1672:	00 97       	sbiw	r24, 0x00	; 0
    1674:	31 f4       	brne	.+12     	; 0x1682 <readFile+0x58>
{
  if(flag == READ) return (1);
    1676:	81 e0       	ldi	r24, 0x01	; 1
    1678:	11 23       	and	r17, r17
    167a:	09 f4       	brne	.+2      	; 0x167e <readFile+0x54>
    167c:	a8 c0       	rjmp	.+336    	; 0x17ce <readFile+0x1a4>
    167e:	80 e0       	ldi	r24, 0x00	; 0
    1680:	a6 c0       	rjmp	.+332    	; 0x17ce <readFile+0x1a4>
  else return (0);
}

if(flag == VERIFY) return (1);	//specified file name is already existing
    1682:	11 30       	cpi	r17, 0x01	; 1
    1684:	09 f4       	brne	.+2      	; 0x1688 <readFile+0x5e>
    1686:	a0 c0       	rjmp	.+320    	; 0x17c8 <readFile+0x19e>

cluster = (((unsigned long) dir->firstClusterHI) << 16) | dir->firstClusterLO;
    1688:	dc 01       	movw	r26, r24
    168a:	54 96       	adiw	r26, 0x14	; 20
    168c:	4d 90       	ld	r4, X+
    168e:	5c 90       	ld	r5, X
    1690:	55 97       	sbiw	r26, 0x15	; 21
    1692:	61 2c       	mov	r6, r1
    1694:	71 2c       	mov	r7, r1
    1696:	32 01       	movw	r6, r4
    1698:	55 24       	eor	r5, r5
    169a:	44 24       	eor	r4, r4
    169c:	5a 96       	adiw	r26, 0x1a	; 26
    169e:	4d 91       	ld	r20, X+
    16a0:	5c 91       	ld	r21, X
    16a2:	5b 97       	sbiw	r26, 0x1b	; 27
    16a4:	60 e0       	ldi	r22, 0x00	; 0
    16a6:	70 e0       	ldi	r23, 0x00	; 0
    16a8:	93 01       	movw	r18, r6
    16aa:	82 01       	movw	r16, r4
    16ac:	04 2b       	or	r16, r20
    16ae:	15 2b       	or	r17, r21
    16b0:	26 2b       	or	r18, r22
    16b2:	37 2b       	or	r19, r23
    16b4:	09 87       	std	Y+9, r16	; 0x09
    16b6:	1a 87       	std	Y+10, r17	; 0x0a
    16b8:	2b 87       	std	Y+11, r18	; 0x0b
    16ba:	3c 87       	std	Y+12, r19	; 0x0c

fileSize = dir->fileSize;
    16bc:	5c 96       	adiw	r26, 0x1c	; 28
    16be:	cd 90       	ld	r12, X+
    16c0:	dd 90       	ld	r13, X+
    16c2:	ed 90       	ld	r14, X+
    16c4:	fc 90       	ld	r15, X
    16c6:	5f 97       	sbiw	r26, 0x1f	; 31

TX_NEWLINE;
    16c8:	85 e9       	ldi	r24, 0x95	; 149
    16ca:	90 e0       	ldi	r25, 0x00	; 0
    16cc:	0e 94 db 17 	call	0x2fb6	; 0x2fb6 <usart_write_str>
TX_NEWLINE;
    16d0:	85 e9       	ldi	r24, 0x95	; 149
    16d2:	90 e0       	ldi	r25, 0x00	; 0
    16d4:	0e 94 db 17 	call	0x2fb6	; 0x2fb6 <usart_write_str>
//		  2, if file name is incompatible
//***************************************************************************
unsigned char readFile (unsigned char flag, unsigned char *fileName)
{
struct dir_Structure *dir;
unsigned long cluster, byteCounter = 0, fileSize, firstSector;
    16d8:	19 82       	std	Y+1, r1	; 0x01
    16da:	1a 82       	std	Y+2, r1	; 0x02
    16dc:	1b 82       	std	Y+3, r1	; 0x03
    16de:	1c 82       	std	Y+4, r1	; 0x04

while(1)
{
  firstSector = getFirstSector (cluster);

  for(j=0; j<sectorPerCluster; j++)
    16e0:	31 2c       	mov	r3, r1
TX_NEWLINE;
TX_NEWLINE;

while(1)
{
  firstSector = getFirstSector (cluster);
    16e2:	69 85       	ldd	r22, Y+9	; 0x09
    16e4:	7a 85       	ldd	r23, Y+10	; 0x0a
    16e6:	8b 85       	ldd	r24, Y+11	; 0x0b
    16e8:	9c 85       	ldd	r25, Y+12	; 0x0c
    16ea:	0e 94 d9 04 	call	0x9b2	; 0x9b2 <getFirstSector>
    16ee:	6d 83       	std	Y+5, r22	; 0x05
    16f0:	7e 83       	std	Y+6, r23	; 0x06
    16f2:	8f 83       	std	Y+7, r24	; 0x07
    16f4:	98 87       	std	Y+8, r25	; 0x08

  for(j=0; j<sectorPerCluster; j++)
    16f6:	80 91 36 05 	lds	r24, 0x0536
    16fa:	90 91 37 05 	lds	r25, 0x0537
    16fe:	89 2b       	or	r24, r25
    1700:	09 f4       	brne	.+2      	; 0x1704 <readFile+0xda>
    1702:	47 c0       	rjmp	.+142    	; 0x1792 <readFile+0x168>
    1704:	13 2d       	mov	r17, r3
    1706:	04 c0       	rjmp	.+8      	; 0x1710 <readFile+0xe6>
    SD_readSingleBlock(firstSector + j);
    
	for(k=0; k<512; k++)
    {
      transmitByte(buffer[k]);
      if ((byteCounter++) >= fileSize ) return 0;
    1708:	49 83       	std	Y+1, r20	; 0x01
    170a:	5a 83       	std	Y+2, r21	; 0x02
    170c:	6b 83       	std	Y+3, r22	; 0x03
    170e:	7c 83       	std	Y+4, r23	; 0x04
{
  firstSector = getFirstSector (cluster);

  for(j=0; j<sectorPerCluster; j++)
  {
    SD_readSingleBlock(firstSector + j);
    1710:	6d 81       	ldd	r22, Y+5	; 0x05
    1712:	7e 81       	ldd	r23, Y+6	; 0x06
    1714:	8f 81       	ldd	r24, Y+7	; 0x07
    1716:	98 85       	ldd	r25, Y+8	; 0x08
    1718:	61 0f       	add	r22, r17
    171a:	71 1d       	adc	r23, r1
    171c:	81 1d       	adc	r24, r1
    171e:	91 1d       	adc	r25, r1
    1720:	0e 94 0d 17 	call	0x2e1a	; 0x2e1a <SD_readSingleBlock>
//Arguments: flag (READ or VERIFY) and pointer to the file name
//return: 0, if normal operation or flag is READ
//	      1, if file is already existing and flag = VERIFY; or if flag=READ and file does not exist
//		  2, if file name is incompatible
//***************************************************************************
unsigned char readFile (unsigned char flag, unsigned char *fileName)
    1724:	49 80       	ldd	r4, Y+1	; 0x01
    1726:	5a 80       	ldd	r5, Y+2	; 0x02
    1728:	6b 80       	ldd	r6, Y+3	; 0x03
    172a:	7c 80       	ldd	r7, Y+4	; 0x04
    172c:	22 e0       	ldi	r18, 0x02	; 2
    172e:	52 0e       	add	r5, r18
    1730:	61 1c       	adc	r6, r1
    1732:	71 1c       	adc	r7, r1
    1734:	89 80       	ldd	r8, Y+1	; 0x01
    1736:	9a 80       	ldd	r9, Y+2	; 0x02
    1738:	ab 80       	ldd	r10, Y+3	; 0x03
    173a:	bc 80       	ldd	r11, Y+4	; 0x04
    173c:	f4 01       	movw	r30, r8
    173e:	89 81       	ldd	r24, Y+1	; 0x01
    1740:	9a 81       	ldd	r25, Y+2	; 0x02
    1742:	e8 1b       	sub	r30, r24
    1744:	f9 0b       	sbc	r31, r25
  {
    SD_readSingleBlock(firstSector + j);
    
	for(k=0; k<512; k++)
    {
      transmitByte(buffer[k]);
    1746:	ea 5c       	subi	r30, 0xCA	; 202
    1748:	fc 4f       	sbci	r31, 0xFC	; 252
    174a:	80 81       	ld	r24, Z
    174c:	0e 94 ea 17 	call	0x2fd4	; 0x2fd4 <transmitByte>
      if ((byteCounter++) >= fileSize ) return 0;
    1750:	b5 01       	movw	r22, r10
    1752:	a4 01       	movw	r20, r8
    1754:	4f 5f       	subi	r20, 0xFF	; 255
    1756:	5f 4f       	sbci	r21, 0xFF	; 255
    1758:	6f 4f       	sbci	r22, 0xFF	; 255
    175a:	7f 4f       	sbci	r23, 0xFF	; 255
    175c:	8c 14       	cp	r8, r12
    175e:	9d 04       	cpc	r9, r13
    1760:	ae 04       	cpc	r10, r14
    1762:	bf 04       	cpc	r11, r15
    1764:	98 f5       	brcc	.+102    	; 0x17cc <readFile+0x1a2>
    1766:	4a 01       	movw	r8, r20
    1768:	5b 01       	movw	r10, r22

  for(j=0; j<sectorPerCluster; j++)
  {
    SD_readSingleBlock(firstSector + j);
    
	for(k=0; k<512; k++)
    176a:	44 15       	cp	r20, r4
    176c:	55 05       	cpc	r21, r5
    176e:	66 05       	cpc	r22, r6
    1770:	77 05       	cpc	r23, r7
    1772:	21 f7       	brne	.-56     	; 0x173c <readFile+0x112>

while(1)
{
  firstSector = getFirstSector (cluster);

  for(j=0; j<sectorPerCluster; j++)
    1774:	1f 5f       	subi	r17, 0xFF	; 255
    1776:	80 91 36 05 	lds	r24, 0x0536
    177a:	90 91 37 05 	lds	r25, 0x0537
    177e:	21 2f       	mov	r18, r17
    1780:	30 e0       	ldi	r19, 0x00	; 0
    1782:	28 17       	cp	r18, r24
    1784:	39 07       	cpc	r19, r25
    1786:	08 f4       	brcc	.+2      	; 0x178a <readFile+0x160>
    1788:	bf cf       	rjmp	.-130    	; 0x1708 <readFile+0xde>
    SD_readSingleBlock(firstSector + j);
    
	for(k=0; k<512; k++)
    {
      transmitByte(buffer[k]);
      if ((byteCounter++) >= fileSize ) return 0;
    178a:	49 83       	std	Y+1, r20	; 0x01
    178c:	5a 83       	std	Y+2, r21	; 0x02
    178e:	6b 83       	std	Y+3, r22	; 0x03
    1790:	7c 83       	std	Y+4, r23	; 0x04
    }
  }
  cluster = getSetNextCluster (cluster, GET, 0);
    1792:	00 e0       	ldi	r16, 0x00	; 0
    1794:	10 e0       	ldi	r17, 0x00	; 0
    1796:	98 01       	movw	r18, r16
    1798:	43 2d       	mov	r20, r3
    179a:	69 85       	ldd	r22, Y+9	; 0x09
    179c:	7a 85       	ldd	r23, Y+10	; 0x0a
    179e:	8b 85       	ldd	r24, Y+11	; 0x0b
    17a0:	9c 85       	ldd	r25, Y+12	; 0x0c
    17a2:	0e 94 04 05 	call	0xa08	; 0xa08 <getSetNextCluster>
    17a6:	69 87       	std	Y+9, r22	; 0x09
    17a8:	7a 87       	std	Y+10, r23	; 0x0a
    17aa:	8b 87       	std	Y+11, r24	; 0x0b
    17ac:	9c 87       	std	Y+12, r25	; 0x0c
  if(cluster == 0) {transmitString_F(PSTR("Error in getting cluster")); return 0;}
    17ae:	67 2b       	or	r22, r23
    17b0:	68 2b       	or	r22, r24
    17b2:	69 2b       	or	r22, r25
    17b4:	09 f0       	breq	.+2      	; 0x17b8 <readFile+0x18e>
    17b6:	95 cf       	rjmp	.-214    	; 0x16e2 <readFile+0xb8>
    17b8:	81 eb       	ldi	r24, 0xB1	; 177
    17ba:	90 e0       	ldi	r25, 0x00	; 0
    17bc:	0e 94 ee 17 	call	0x2fdc	; 0x2fdc <transmitString_F>
    17c0:	80 e0       	ldi	r24, 0x00	; 0
    17c2:	05 c0       	rjmp	.+10     	; 0x17ce <readFile+0x1a4>
unsigned long cluster, byteCounter = 0, fileSize, firstSector;
unsigned int k;
unsigned char j, error;

error = convertFileName (fileName); //convert fileName into FAT format
if(error) return 2;
    17c4:	82 e0       	ldi	r24, 0x02	; 2
    17c6:	03 c0       	rjmp	.+6      	; 0x17ce <readFile+0x1a4>
{
  if(flag == READ) return (1);
  else return (0);
}

if(flag == VERIFY) return (1);	//specified file name is already existing
    17c8:	81 e0       	ldi	r24, 0x01	; 1
    17ca:	01 c0       	rjmp	.+2      	; 0x17ce <readFile+0x1a4>
    SD_readSingleBlock(firstSector + j);
    
	for(k=0; k<512; k++)
    {
      transmitByte(buffer[k]);
      if ((byteCounter++) >= fileSize ) return 0;
    17cc:	80 e0       	ldi	r24, 0x00	; 0
  }
  cluster = getSetNextCluster (cluster, GET, 0);
  if(cluster == 0) {transmitString_F(PSTR("Error in getting cluster")); return 0;}
}
return 0;
}
    17ce:	2c 96       	adiw	r28, 0x0c	; 12
    17d0:	0f b6       	in	r0, 0x3f	; 63
    17d2:	f8 94       	cli
    17d4:	de bf       	out	0x3e, r29	; 62
    17d6:	0f be       	out	0x3f, r0	; 63
    17d8:	cd bf       	out	0x3d, r28	; 61
    17da:	df 91       	pop	r29
    17dc:	cf 91       	pop	r28
    17de:	1f 91       	pop	r17
    17e0:	0f 91       	pop	r16
    17e2:	ff 90       	pop	r15
    17e4:	ef 90       	pop	r14
    17e6:	df 90       	pop	r13
    17e8:	cf 90       	pop	r12
    17ea:	bf 90       	pop	r11
    17ec:	af 90       	pop	r10
    17ee:	9f 90       	pop	r9
    17f0:	8f 90       	pop	r8
    17f2:	7f 90       	pop	r7
    17f4:	6f 90       	pop	r6
    17f6:	5f 90       	pop	r5
    17f8:	4f 90       	pop	r4
    17fa:	3f 90       	pop	r3
    17fc:	08 95       	ret

000017fe <writeFile>:
//			file name does not exist; if the file already exists then append the data
//Arguments: pointer to the file name
//return: none
//************************************************************************************
unsigned char writeFile (unsigned char *fileName)
{
    17fe:	2f 92       	push	r2
    1800:	3f 92       	push	r3
    1802:	4f 92       	push	r4
    1804:	5f 92       	push	r5
    1806:	6f 92       	push	r6
    1808:	7f 92       	push	r7
    180a:	8f 92       	push	r8
    180c:	9f 92       	push	r9
    180e:	af 92       	push	r10
    1810:	bf 92       	push	r11
    1812:	cf 92       	push	r12
    1814:	df 92       	push	r13
    1816:	ef 92       	push	r14
    1818:	ff 92       	push	r15
    181a:	0f 93       	push	r16
    181c:	1f 93       	push	r17
    181e:	cf 93       	push	r28
    1820:	df 93       	push	r29
    1822:	cd b7       	in	r28, 0x3d	; 61
    1824:	de b7       	in	r29, 0x3e	; 62
    1826:	60 97       	sbiw	r28, 0x10	; 16
    1828:	0f b6       	in	r0, 0x3f	; 63
    182a:	f8 94       	cli
    182c:	de bf       	out	0x3e, r29	; 62
    182e:	0f be       	out	0x3f, r0	; 63
    1830:	cd bf       	out	0x3d, r28	; 61
    1832:	8d 83       	std	Y+5, r24	; 0x05
    1834:	9e 83       	std	Y+6, r25	; 0x06
unsigned char j,k, data, error, fileCreatedFlag = 0, start = 0, appendFile = 0, sector=0;
unsigned int i, firstClusterHigh=0, firstClusterLow=0;  //value 0 is assigned just to avoid warning in compilation
struct dir_Structure *dir;
unsigned long cluster, nextCluster, prevCluster, firstSector, clusterCount, extraMemory;

j = readFile (VERIFY, fileName);
    1836:	68 2f       	mov	r22, r24
    1838:	79 2f       	mov	r23, r25
    183a:	81 e0       	ldi	r24, 0x01	; 1
    183c:	0e 94 15 0b 	call	0x162a	; 0x162a <readFile>

if(j == 1) 
    1840:	81 30       	cpi	r24, 0x01	; 1
    1842:	09 f0       	breq	.+2      	; 0x1846 <writeFile+0x48>
    1844:	52 c0       	rjmp	.+164    	; 0x18ea <writeFile+0xec>
{
  //transmitString_F(PSTR(" File already exists, appending data..")); 
  appendFile = 1;
  cluster = appendStartCluster;
    1846:	c0 90 43 05 	lds	r12, 0x0543
    184a:	d0 90 44 05 	lds	r13, 0x0544
    184e:	e0 90 45 05 	lds	r14, 0x0545
    1852:	f0 90 46 05 	lds	r15, 0x0546
  clusterCount=0;
    1856:	81 2c       	mov	r8, r1
    1858:	91 2c       	mov	r9, r1
    185a:	54 01       	movw	r10, r8
  while(1)
  {
    nextCluster = getSetNextCluster (cluster, GET, 0);
    185c:	00 e0       	ldi	r16, 0x00	; 0
    185e:	10 e0       	ldi	r17, 0x00	; 0
    1860:	98 01       	movw	r18, r16
    1862:	40 e0       	ldi	r20, 0x00	; 0
    1864:	c7 01       	movw	r24, r14
    1866:	b6 01       	movw	r22, r12
    1868:	0e 94 04 05 	call	0xa08	; 0xa08 <getSetNextCluster>
    if(nextCluster == EOF) break;
    186c:	6f 3f       	cpi	r22, 0xFF	; 255
    186e:	2f ef       	ldi	r18, 0xFF	; 255
    1870:	72 07       	cpc	r23, r18
    1872:	82 07       	cpc	r24, r18
    1874:	2f e0       	ldi	r18, 0x0F	; 15
    1876:	92 07       	cpc	r25, r18
    1878:	41 f0       	breq	.+16     	; 0x188a <writeFile+0x8c>
	cluster = nextCluster;
	clusterCount++;
    187a:	af ef       	ldi	r26, 0xFF	; 255
    187c:	8a 1a       	sub	r8, r26
    187e:	9a 0a       	sbc	r9, r26
    1880:	aa 0a       	sbc	r10, r26
    1882:	ba 0a       	sbc	r11, r26
  clusterCount=0;
  while(1)
  {
    nextCluster = getSetNextCluster (cluster, GET, 0);
    if(nextCluster == EOF) break;
	cluster = nextCluster;
    1884:	6b 01       	movw	r12, r22
    1886:	7c 01       	movw	r14, r24
	clusterCount++;
  }
    1888:	e9 cf       	rjmp	.-46     	; 0x185c <writeFile+0x5e>

  sector = (fileSize - (clusterCount * sectorPerCluster * bytesPerSector)) / bytesPerSector; //last sector number of the last cluster of the file
    188a:	a0 91 36 05 	lds	r26, 0x0536
    188e:	b0 91 37 05 	lds	r27, 0x0537
    1892:	20 91 26 03 	lds	r18, 0x0326
    1896:	30 91 27 03 	lds	r19, 0x0327
    189a:	e0 91 26 03 	lds	r30, 0x0326
    189e:	f0 91 27 03 	lds	r31, 0x0327
    18a2:	0e 94 43 18 	call	0x3086	; 0x3086 <__umulhisi3>
    18a6:	9b 01       	movw	r18, r22
    18a8:	ac 01       	movw	r20, r24
    18aa:	c5 01       	movw	r24, r10
    18ac:	b4 01       	movw	r22, r8
    18ae:	0e 94 11 18 	call	0x3022	; 0x3022 <__mulsi3>
    18b2:	00 91 22 03 	lds	r16, 0x0322
    18b6:	10 91 23 03 	lds	r17, 0x0323
    18ba:	20 91 24 03 	lds	r18, 0x0324
    18be:	30 91 25 03 	lds	r19, 0x0325
    18c2:	48 01       	movw	r8, r16
    18c4:	59 01       	movw	r10, r18
    18c6:	86 1a       	sub	r8, r22
    18c8:	97 0a       	sbc	r9, r23
    18ca:	a8 0a       	sbc	r10, r24
    18cc:	b9 0a       	sbc	r11, r25
    18ce:	c5 01       	movw	r24, r10
    18d0:	b4 01       	movw	r22, r8
    18d2:	9f 01       	movw	r18, r30
    18d4:	40 e0       	ldi	r20, 0x00	; 0
    18d6:	50 e0       	ldi	r21, 0x00	; 0
    18d8:	0e 94 21 18 	call	0x3042	; 0x3042 <__udivmodsi4>
//return: none
//************************************************************************************
unsigned char writeFile (unsigned char *fileName)
{
unsigned char j,k, data, error, fileCreatedFlag = 0, start = 0, appendFile = 0, sector=0;
unsigned int i, firstClusterHigh=0, firstClusterLow=0;  //value 0 is assigned just to avoid warning in compilation
    18dc:	1e 86       	std	Y+14, r1	; 0x0e
    18de:	1d 86       	std	Y+13, r1	; 0x0d
    18e0:	1c 86       	std	Y+12, r1	; 0x0c
    18e2:	1b 86       	std	Y+11, r1	; 0x0b
	cluster = nextCluster;
	clusterCount++;
  }

  sector = (fileSize - (clusterCount * sectorPerCluster * bytesPerSector)) / bytesPerSector; //last sector number of the last cluster of the file
  start = 1;
    18e4:	81 e0       	ldi	r24, 0x01	; 1
    18e6:	8f 83       	std	Y+7, r24	; 0x07
    18e8:	47 c0       	rjmp	.+142    	; 0x1978 <writeFile+0x17a>
}
else if(j == 2) 
    18ea:	82 30       	cpi	r24, 0x02	; 2
    18ec:	09 f4       	brne	.+2      	; 0x18f0 <writeFile+0xf2>
    18ee:	83 c2       	rjmp	.+1286   	; 0x1df6 <writeFile+0x5f8>
else
{
 // TX_NEWLINE;
 // transmitString_F(PSTR(" Creating File.."));

  cluster = getSetFreeCluster (NEXT_FREE, GET, 0);
    18f0:	20 e0       	ldi	r18, 0x00	; 0
    18f2:	30 e0       	ldi	r19, 0x00	; 0
    18f4:	a9 01       	movw	r20, r18
    18f6:	60 e0       	ldi	r22, 0x00	; 0
    18f8:	82 e0       	ldi	r24, 0x02	; 2
    18fa:	0e 94 80 05 	call	0xb00	; 0xb00 <getSetFreeCluster>
  if(cluster > totalClusters)
    18fe:	00 91 28 03 	lds	r16, 0x0328
    1902:	10 91 29 03 	lds	r17, 0x0329
    1906:	20 91 2a 03 	lds	r18, 0x032A
    190a:	30 91 2b 03 	lds	r19, 0x032B
    190e:	06 17       	cp	r16, r22
    1910:	17 07       	cpc	r17, r23
    1912:	28 07       	cpc	r18, r24
    1914:	39 07       	cpc	r19, r25
    1916:	40 f4       	brcc	.+16     	; 0x1928 <writeFile+0x12a>
     cluster = rootCluster;
    1918:	60 91 2c 03 	lds	r22, 0x032C
    191c:	70 91 2d 03 	lds	r23, 0x032D
    1920:	80 91 2e 03 	lds	r24, 0x032E
    1924:	90 91 2f 03 	lds	r25, 0x032F

  cluster = searchNextFreeCluster(cluster);
    1928:	0e 94 77 07 	call	0xeee	; 0xeee <searchNextFreeCluster>
    192c:	6b 01       	movw	r12, r22
    192e:	7c 01       	movw	r14, r24
   if(cluster == 0)
    1930:	61 15       	cp	r22, r1
    1932:	71 05       	cpc	r23, r1
    1934:	81 05       	cpc	r24, r1
    1936:	91 05       	cpc	r25, r1
    1938:	51 f4       	brne	.+20     	; 0x194e <writeFile+0x150>
   {
      TX_NEWLINE;
    193a:	85 e9       	ldi	r24, 0x95	; 149
    193c:	90 e0       	ldi	r25, 0x00	; 0
    193e:	0e 94 db 17 	call	0x2fb6	; 0x2fb6 <usart_write_str>
      transmitString_F(PSTR(" No free cluster!"));
    1942:	8d ed       	ldi	r24, 0xDD	; 221
    1944:	90 e0       	ldi	r25, 0x00	; 0
    1946:	0e 94 ee 17 	call	0x2fdc	; 0x2fdc <transmitString_F>
	  return 1;
    194a:	81 e0       	ldi	r24, 0x01	; 1
    194c:	5d c2       	rjmp	.+1210   	; 0x1e08 <writeFile+0x60a>
   }
  getSetNextCluster(cluster, SET, EOF);   //last cluster of the file, marked EOF
    194e:	0f ef       	ldi	r16, 0xFF	; 255
    1950:	1f ef       	ldi	r17, 0xFF	; 255
    1952:	2f ef       	ldi	r18, 0xFF	; 255
    1954:	3f e0       	ldi	r19, 0x0F	; 15
    1956:	41 e0       	ldi	r20, 0x01	; 1
    1958:	0e 94 04 05 	call	0xa08	; 0xa08 <getSetNextCluster>
   
  firstClusterHigh = (unsigned int) ((cluster & 0xffff0000) >> 16 );
    195c:	fc 86       	std	Y+12, r15	; 0x0c
    195e:	eb 86       	std	Y+11, r14	; 0x0b
  firstClusterLow = (unsigned int) ( cluster & 0x0000ffff);
    1960:	de 86       	std	Y+14, r13	; 0x0e
    1962:	cd 86       	std	Y+13, r12	; 0x0d
  fileSize = 0;
    1964:	10 92 22 03 	sts	0x0322, r1
    1968:	10 92 23 03 	sts	0x0323, r1
    196c:	10 92 24 03 	sts	0x0324, r1
    1970:	10 92 25 03 	sts	0x0325, r1
//Arguments: pointer to the file name
//return: none
//************************************************************************************
unsigned char writeFile (unsigned char *fileName)
{
unsigned char j,k, data, error, fileCreatedFlag = 0, start = 0, appendFile = 0, sector=0;
    1974:	20 e0       	ldi	r18, 0x00	; 0
    1976:	1f 82       	std	Y+7, r1	; 0x07
    1978:	8f 81       	ldd	r24, Y+7	; 0x07
  firstClusterHigh = (unsigned int) ((cluster & 0xffff0000) >> 16 );
  firstClusterLow = (unsigned int) ( cluster & 0x0000ffff);
  fileSize = 0;
}

k=0;
    197a:	10 e0       	ldi	r17, 0x00	; 0
   }
   else
   {
      startBlock = getFirstSector (cluster);
	  i=0;
	  j=0;
    197c:	21 2c       	mov	r2, r1
while(1)
{
   if(start)
   {
      start = 0;
	  startBlock = getFirstSector (cluster) + sector;
    197e:	42 2e       	mov	r4, r18
    1980:	51 2c       	mov	r5, r1
    1982:	61 2c       	mov	r6, r1
    1984:	71 2c       	mov	r7, r1
	  SD_readSingleBlock (startBlock);
	  i = fileSize % bytesPerSector;
	  j = sector;
    1986:	29 83       	std	Y+1, r18	; 0x01
     buffer[i++] = data;
	 fileSize++;
     
     if(i >= 512)   //though 'i' will never become greater than 512, it's kept here to avoid 
	 {				//infinite loop in case it happens to be greater than 512 due to some data corruption
	   i=0;
    1988:	31 2c       	mov	r3, r1
    198a:	00 e0       	ldi	r16, 0x00	; 0
    198c:	1f 87       	std	Y+15, r17	; 0x0f
    198e:	08 8b       	std	Y+16, r16	; 0x10

k=0;

while(1)
{
   if(start)
    1990:	88 23       	and	r24, r24
    1992:	71 f1       	breq	.+92     	; 0x19f0 <writeFile+0x1f2>
   {
      start = 0;
	  startBlock = getFirstSector (cluster) + sector;
    1994:	c7 01       	movw	r24, r14
    1996:	b6 01       	movw	r22, r12
    1998:	0e 94 d9 04 	call	0x9b2	; 0x9b2 <getFirstSector>
    199c:	dc 01       	movw	r26, r24
    199e:	cb 01       	movw	r24, r22
    19a0:	84 0d       	add	r24, r4
    19a2:	95 1d       	adc	r25, r5
    19a4:	a6 1d       	adc	r26, r6
    19a6:	b7 1d       	adc	r27, r7
    19a8:	80 93 32 03 	sts	0x0332, r24
    19ac:	90 93 33 03 	sts	0x0333, r25
    19b0:	a0 93 34 03 	sts	0x0334, r26
    19b4:	b0 93 35 03 	sts	0x0335, r27
	  SD_readSingleBlock (startBlock);
    19b8:	60 91 32 03 	lds	r22, 0x0332
    19bc:	70 91 33 03 	lds	r23, 0x0333
    19c0:	80 91 34 03 	lds	r24, 0x0334
    19c4:	90 91 35 03 	lds	r25, 0x0335
    19c8:	0e 94 0d 17 	call	0x2e1a	; 0x2e1a <SD_readSingleBlock>
	  i = fileSize % bytesPerSector;
    19cc:	20 91 26 03 	lds	r18, 0x0326
    19d0:	30 91 27 03 	lds	r19, 0x0327
    19d4:	40 e0       	ldi	r20, 0x00	; 0
    19d6:	50 e0       	ldi	r21, 0x00	; 0
    19d8:	60 91 22 03 	lds	r22, 0x0322
    19dc:	70 91 23 03 	lds	r23, 0x0323
    19e0:	80 91 24 03 	lds	r24, 0x0324
    19e4:	90 91 25 03 	lds	r25, 0x0325
    19e8:	0e 94 21 18 	call	0x3042	; 0x3042 <__udivmodsi4>
	  j = sector;
    19ec:	09 81       	ldd	r16, Y+1	; 0x01
    19ee:	0f c0       	rjmp	.+30     	; 0x1a0e <writeFile+0x210>
   }
   else
   {
      startBlock = getFirstSector (cluster);
    19f0:	c7 01       	movw	r24, r14
    19f2:	b6 01       	movw	r22, r12
    19f4:	0e 94 d9 04 	call	0x9b2	; 0x9b2 <getFirstSector>
    19f8:	60 93 32 03 	sts	0x0332, r22
    19fc:	70 93 33 03 	sts	0x0333, r23
    1a00:	80 93 34 03 	sts	0x0334, r24
    1a04:	90 93 35 03 	sts	0x0335, r25
	  i=0;
    1a08:	60 e0       	ldi	r22, 0x00	; 0
    1a0a:	70 e0       	ldi	r23, 0x00	; 0
	  j=0;
    1a0c:	02 2d       	mov	r16, r2
    1a0e:	bf 84       	ldd	r11, Y+15	; 0x0f
    1a10:	a8 88       	ldd	r10, Y+16	; 0x10
   
   
   do
   {

	 data = dataString[k++];
    1a12:	eb 2d       	mov	r30, r11
    1a14:	f0 e0       	ldi	r31, 0x00	; 0
    1a16:	e9 5b       	subi	r30, 0xB9	; 185
    1a18:	fa 4f       	sbci	r31, 0xFA	; 250
    1a1a:	10 81       	ld	r17, Z
    1a1c:	b3 94       	inc	r11
	 //transmitByte(data);
     buffer[i++] = data;
    1a1e:	fb 01       	movw	r30, r22
    1a20:	ea 5c       	subi	r30, 0xCA	; 202
    1a22:	fc 4f       	sbci	r31, 0xFC	; 252
    1a24:	10 83       	st	Z, r17
    1a26:	6f 5f       	subi	r22, 0xFF	; 255
    1a28:	7f 4f       	sbci	r23, 0xFF	; 255
	 fileSize++;
    1a2a:	80 91 22 03 	lds	r24, 0x0322
    1a2e:	90 91 23 03 	lds	r25, 0x0323
    1a32:	a0 91 24 03 	lds	r26, 0x0324
    1a36:	b0 91 25 03 	lds	r27, 0x0325
    1a3a:	01 96       	adiw	r24, 0x01	; 1
    1a3c:	a1 1d       	adc	r26, r1
    1a3e:	b1 1d       	adc	r27, r1
    1a40:	80 93 22 03 	sts	0x0322, r24
    1a44:	90 93 23 03 	sts	0x0323, r25
    1a48:	a0 93 24 03 	sts	0x0324, r26
    1a4c:	b0 93 25 03 	sts	0x0325, r27
     
     if(i >= 512)   //though 'i' will never become greater than 512, it's kept here to avoid 
    1a50:	61 15       	cp	r22, r1
    1a52:	92 e0       	ldi	r25, 0x02	; 2
    1a54:	79 07       	cpc	r23, r25
    1a56:	48 f1       	brcs	.+82     	; 0x1aaa <writeFile+0x2ac>
	 {				//infinite loop in case it happens to be greater than 512 due to some data corruption
	   i=0;
	   error = SD_writeSingleBlock (startBlock);
    1a58:	60 91 32 03 	lds	r22, 0x0332
    1a5c:	70 91 33 03 	lds	r23, 0x0333
    1a60:	80 91 34 03 	lds	r24, 0x0334
    1a64:	90 91 35 03 	lds	r25, 0x0335
    1a68:	0e 94 3e 17 	call	0x2e7c	; 0x2e7c <SD_writeSingleBlock>
       j++;
    1a6c:	0f 5f       	subi	r16, 0xFF	; 255
	   if(j == sectorPerCluster) {j = 0; break;}
    1a6e:	80 91 36 05 	lds	r24, 0x0536
    1a72:	90 91 37 05 	lds	r25, 0x0537
    1a76:	20 2f       	mov	r18, r16
    1a78:	30 e0       	ldi	r19, 0x00	; 0
    1a7a:	28 17       	cp	r18, r24
    1a7c:	39 07       	cpc	r19, r25
    1a7e:	e1 f0       	breq	.+56     	; 0x1ab8 <writeFile+0x2ba>
	   startBlock++; 
    1a80:	80 91 32 03 	lds	r24, 0x0332
    1a84:	90 91 33 03 	lds	r25, 0x0333
    1a88:	a0 91 34 03 	lds	r26, 0x0334
    1a8c:	b0 91 35 03 	lds	r27, 0x0335
    1a90:	01 96       	adiw	r24, 0x01	; 1
    1a92:	a1 1d       	adc	r26, r1
    1a94:	b1 1d       	adc	r27, r1
    1a96:	80 93 32 03 	sts	0x0332, r24
    1a9a:	90 93 33 03 	sts	0x0333, r25
    1a9e:	a0 93 34 03 	sts	0x0334, r26
    1aa2:	b0 93 35 03 	sts	0x0335, r27
     buffer[i++] = data;
	 fileSize++;
     
     if(i >= 512)   //though 'i' will never become greater than 512, it's kept here to avoid 
	 {				//infinite loop in case it happens to be greater than 512 due to some data corruption
	   i=0;
    1aa6:	63 2d       	mov	r22, r3
    1aa8:	7a 2d       	mov	r23, r10
	   error = SD_writeSingleBlock (startBlock);
       j++;
	   if(j == sectorPerCluster) {j = 0; break;}
	   startBlock++; 
     }
   } while((data != '\n') && (k < MAX_STRING_SIZE)); //stop when newline character is found
    1aaa:	1a 30       	cpi	r17, 0x0A	; 10
    1aac:	59 f0       	breq	.+22     	; 0x1ac4 <writeFile+0x2c6>
    1aae:	a3 e6       	ldi	r26, 0x63	; 99
    1ab0:	ab 15       	cp	r26, r11
    1ab2:	08 f0       	brcs	.+2      	; 0x1ab6 <writeFile+0x2b8>
    1ab4:	ae cf       	rjmp	.-164    	; 0x1a12 <writeFile+0x214>
    1ab6:	06 c0       	rjmp	.+12     	; 0x1ac4 <writeFile+0x2c6>
    1ab8:	bf 86       	std	Y+15, r11	; 0x0f
    1aba:	a8 8a       	std	Y+16, r10	; 0x10
   
   
   do
   {

	 data = dataString[k++];
    1abc:	8b 2d       	mov	r24, r11
	   startBlock++; 
     }
   } while((data != '\n') && (k < MAX_STRING_SIZE)); //stop when newline character is found
   													 //or when string size limit reached

   if((data == '\n') || (k >= MAX_STRING_SIZE))
    1abe:	1a 30       	cpi	r17, 0x0A	; 10
    1ac0:	31 f4       	brne	.+12     	; 0x1ace <writeFile+0x2d0>
    1ac2:	9f c1       	rjmp	.+830    	; 0x1e02 <writeFile+0x604>
   {
      for(;i<512;i++)  //fill the rest of the buffer with 0x00
    1ac4:	61 15       	cp	r22, r1
    1ac6:	b2 e0       	ldi	r27, 0x02	; 2
    1ac8:	7b 07       	cpc	r23, r27
    1aca:	20 f0       	brcs	.+8      	; 0x1ad4 <writeFile+0x2d6>
    1acc:	0d c0       	rjmp	.+26     	; 0x1ae8 <writeFile+0x2ea>
	   startBlock++; 
     }
   } while((data != '\n') && (k < MAX_STRING_SIZE)); //stop when newline character is found
   													 //or when string size limit reached

   if((data == '\n') || (k >= MAX_STRING_SIZE))
    1ace:	84 36       	cpi	r24, 0x64	; 100
    1ad0:	40 f1       	brcs	.+80     	; 0x1b22 <writeFile+0x324>
    1ad2:	97 c1       	rjmp	.+814    	; 0x1e02 <writeFile+0x604>
   {
      for(;i<512;i++)  //fill the rest of the buffer with 0x00
        buffer[i]= 0x00;
    1ad4:	fb 01       	movw	r30, r22
    1ad6:	ea 5c       	subi	r30, 0xCA	; 202
    1ad8:	fc 4f       	sbci	r31, 0xFC	; 252
    1ada:	10 82       	st	Z, r1
   } while((data != '\n') && (k < MAX_STRING_SIZE)); //stop when newline character is found
   													 //or when string size limit reached

   if((data == '\n') || (k >= MAX_STRING_SIZE))
   {
      for(;i<512;i++)  //fill the rest of the buffer with 0x00
    1adc:	6f 5f       	subi	r22, 0xFF	; 255
    1ade:	7f 4f       	sbci	r23, 0xFF	; 255
    1ae0:	61 15       	cp	r22, r1
    1ae2:	e2 e0       	ldi	r30, 0x02	; 2
    1ae4:	7e 07       	cpc	r23, r30
    1ae6:	b0 f3       	brcs	.-20     	; 0x1ad4 <writeFile+0x2d6>
        buffer[i]= 0x00;
   	  error = SD_writeSingleBlock (startBlock);
    1ae8:	60 91 32 03 	lds	r22, 0x0332
    1aec:	70 91 33 03 	lds	r23, 0x0333
    1af0:	80 91 34 03 	lds	r24, 0x0334
    1af4:	90 91 35 03 	lds	r25, 0x0335
    1af8:	0e 94 3e 17 	call	0x2e7c	; 0x2e7c <SD_writeSingleBlock>

   getSetNextCluster(prevCluster, SET, cluster);
   getSetNextCluster(cluster, SET, EOF);   //last cluster of the file, marked EOF
}        

getSetFreeCluster (NEXT_FREE, SET, cluster); //update FSinfo next free cluster entry
    1afc:	a7 01       	movw	r20, r14
    1afe:	96 01       	movw	r18, r12
    1b00:	61 e0       	ldi	r22, 0x01	; 1
    1b02:	82 e0       	ldi	r24, 0x02	; 2
    1b04:	0e 94 80 05 	call	0xb00	; 0xb00 <getSetFreeCluster>

/*
error = getDateTime_FAT();    //get current date & time from the RTC
if(error) { dateFAT = 0; timeFAT = 0;}*/
dateFAT = 0; timeFAT = 0;
    1b08:	10 92 1d 03 	sts	0x031D, r1
    1b0c:	10 92 1c 03 	sts	0x031C, r1
    1b10:	10 92 31 03 	sts	0x0331, r1
    1b14:	10 92 30 03 	sts	0x0330, r1

if(appendFile)  //executes this loop if file is to be appended
    1b18:	8f 80       	ldd	r8, Y+7	; 0x07
    1b1a:	88 20       	and	r8, r8
    1b1c:	09 f4       	brne	.+2      	; 0x1b20 <writeFile+0x322>
    1b1e:	6f c0       	rjmp	.+222    	; 0x1bfe <writeFile+0x400>
    1b20:	29 c0       	rjmp	.+82     	; 0x1b74 <writeFile+0x376>
      break;
   } 
 
   prevCluster = cluster;

   cluster = searchNextFreeCluster(prevCluster); //look for a free cluster starting from the current cluster
    1b22:	c7 01       	movw	r24, r14
    1b24:	b6 01       	movw	r22, r12
    1b26:	0e 94 77 07 	call	0xeee	; 0xeee <searchNextFreeCluster>
    1b2a:	4b 01       	movw	r8, r22
    1b2c:	5c 01       	movw	r10, r24

   if(cluster == 0)
    1b2e:	61 15       	cp	r22, r1
    1b30:	71 05       	cpc	r23, r1
    1b32:	81 05       	cpc	r24, r1
    1b34:	91 05       	cpc	r25, r1
    1b36:	51 f4       	brne	.+20     	; 0x1b4c <writeFile+0x34e>
   {
      TX_NEWLINE;
    1b38:	85 e9       	ldi	r24, 0x95	; 149
    1b3a:	90 e0       	ldi	r25, 0x00	; 0
    1b3c:	0e 94 db 17 	call	0x2fb6	; 0x2fb6 <usart_write_str>
      transmitString_F(PSTR(" No free cluster!"));
    1b40:	8f ee       	ldi	r24, 0xEF	; 239
    1b42:	90 e0       	ldi	r25, 0x00	; 0
    1b44:	0e 94 ee 17 	call	0x2fdc	; 0x2fdc <transmitString_F>
	  return 1;
    1b48:	81 e0       	ldi	r24, 0x01	; 1
    1b4a:	5e c1       	rjmp	.+700    	; 0x1e08 <writeFile+0x60a>
   }

   getSetNextCluster(prevCluster, SET, cluster);
    1b4c:	8b 01       	movw	r16, r22
    1b4e:	9c 01       	movw	r18, r24
    1b50:	41 e0       	ldi	r20, 0x01	; 1
    1b52:	c7 01       	movw	r24, r14
    1b54:	b6 01       	movw	r22, r12
    1b56:	0e 94 04 05 	call	0xa08	; 0xa08 <getSetNextCluster>
   getSetNextCluster(cluster, SET, EOF);   //last cluster of the file, marked EOF
    1b5a:	0f ef       	ldi	r16, 0xFF	; 255
    1b5c:	1f ef       	ldi	r17, 0xFF	; 255
    1b5e:	2f ef       	ldi	r18, 0xFF	; 255
    1b60:	3f e0       	ldi	r19, 0x0F	; 15
    1b62:	41 e0       	ldi	r20, 0x01	; 1
    1b64:	c5 01       	movw	r24, r10
    1b66:	b4 01       	movw	r22, r8
    1b68:	0e 94 04 05 	call	0xa08	; 0xa08 <getSetNextCluster>
    1b6c:	82 2d       	mov	r24, r2
      break;
   } 
 
   prevCluster = cluster;

   cluster = searchNextFreeCluster(prevCluster); //look for a free cluster starting from the current cluster
    1b6e:	75 01       	movw	r14, r10
    1b70:	64 01       	movw	r12, r8
	  return 1;
   }

   getSetNextCluster(prevCluster, SET, cluster);
   getSetNextCluster(cluster, SET, EOF);   //last cluster of the file, marked EOF
}        
    1b72:	0e cf       	rjmp	.-484    	; 0x1990 <writeFile+0x192>
if(error) { dateFAT = 0; timeFAT = 0;}*/
dateFAT = 0; timeFAT = 0;

if(appendFile)  //executes this loop if file is to be appended
{
  SD_readSingleBlock (appendFileSector);    
    1b74:	60 91 ad 05 	lds	r22, 0x05AD
    1b78:	70 91 ae 05 	lds	r23, 0x05AE
    1b7c:	80 91 af 05 	lds	r24, 0x05AF
    1b80:	90 91 b0 05 	lds	r25, 0x05B0
    1b84:	0e 94 0d 17 	call	0x2e1a	; 0x2e1a <SD_readSingleBlock>
  dir = (struct dir_Structure *) &buffer[appendFileLocation]; 
    1b88:	e0 91 18 03 	lds	r30, 0x0318
    1b8c:	f0 91 19 03 	lds	r31, 0x0319
    1b90:	ea 5c       	subi	r30, 0xCA	; 202
    1b92:	fc 4f       	sbci	r31, 0xFC	; 252

  dir->lastAccessDate = 0;   //date of last access ignored
    1b94:	13 8a       	std	Z+19, r1	; 0x13
    1b96:	12 8a       	std	Z+18, r1	; 0x12
  dir->writeTime = timeFAT;  //setting new time of last write, obtained from RTC
    1b98:	80 91 30 03 	lds	r24, 0x0330
    1b9c:	90 91 31 03 	lds	r25, 0x0331
    1ba0:	97 8b       	std	Z+23, r25	; 0x17
    1ba2:	86 8b       	std	Z+22, r24	; 0x16
  dir->writeDate = dateFAT;  //setting new date of last write, obtained from RTC
    1ba4:	80 91 1c 03 	lds	r24, 0x031C
    1ba8:	90 91 1d 03 	lds	r25, 0x031D
    1bac:	91 8f       	std	Z+25, r25	; 0x19
    1bae:	80 8f       	std	Z+24, r24	; 0x18
  extraMemory = fileSize - dir->fileSize;
    1bb0:	80 91 22 03 	lds	r24, 0x0322
    1bb4:	90 91 23 03 	lds	r25, 0x0323
    1bb8:	a0 91 24 03 	lds	r26, 0x0324
    1bbc:	b0 91 25 03 	lds	r27, 0x0325
    1bc0:	44 8d       	ldd	r20, Z+28	; 0x1c
    1bc2:	55 8d       	ldd	r21, Z+29	; 0x1d
    1bc4:	66 8d       	ldd	r22, Z+30	; 0x1e
    1bc6:	77 8d       	ldd	r23, Z+31	; 0x1f
    1bc8:	6c 01       	movw	r12, r24
    1bca:	7d 01       	movw	r14, r26
    1bcc:	c4 1a       	sub	r12, r20
    1bce:	d5 0a       	sbc	r13, r21
    1bd0:	e6 0a       	sbc	r14, r22
    1bd2:	f7 0a       	sbc	r15, r23
  dir->fileSize = fileSize;
    1bd4:	84 8f       	std	Z+28, r24	; 0x1c
    1bd6:	95 8f       	std	Z+29, r25	; 0x1d
    1bd8:	a6 8f       	std	Z+30, r26	; 0x1e
    1bda:	b7 8f       	std	Z+31, r27	; 0x1f
  SD_writeSingleBlock (appendFileSector);
    1bdc:	60 91 ad 05 	lds	r22, 0x05AD
    1be0:	70 91 ae 05 	lds	r23, 0x05AE
    1be4:	80 91 af 05 	lds	r24, 0x05AF
    1be8:	90 91 b0 05 	lds	r25, 0x05B0
    1bec:	0e 94 3e 17 	call	0x2e7c	; 0x2e7c <SD_writeSingleBlock>
  freeMemoryUpdate (REMOVE, extraMemory); //updating free memory count in FSinfo sector;
    1bf0:	b7 01       	movw	r22, r14
    1bf2:	a6 01       	movw	r20, r12
    1bf4:	81 e0       	ldi	r24, 0x01	; 1
    1bf6:	0e 94 8f 08 	call	0x111e	; 0x111e <freeMemoryUpdate>

  
 // TX_NEWLINE;
 // transmitString_F(PSTR(" File appended!"));

  return 0;
    1bfa:	80 e0       	ldi	r24, 0x00	; 0
    1bfc:	05 c1       	rjmp	.+522    	; 0x1e08 <writeFile+0x60a>
}

//executes following portion when new file is created

prevCluster = rootCluster; //root cluster
    1bfe:	40 90 2c 03 	lds	r4, 0x032C
    1c02:	50 90 2d 03 	lds	r5, 0x032D
    1c06:	60 90 2e 03 	lds	r6, 0x032E
    1c0a:	70 90 2f 03 	lds	r7, 0x032F
//Arguments: pointer to the file name
//return: none
//************************************************************************************
unsigned char writeFile (unsigned char *fileName)
{
unsigned char j,k, data, error, fileCreatedFlag = 0, start = 0, appendFile = 0, sector=0;
    1c0e:	10 e0       	ldi	r17, 0x00	; 0

        if((dir->name[0] == EMPTY) || (dir->name[0] == DELETED))  //looking for an empty slot to enter file info
		{
		  for(j=0; j<11; j++)
  			dir->name[j] = fileName[j];
		  dir->attrib = ATTR_ARCHIVE;	//settting file attribute as 'archive'
    1c10:	68 94       	set
    1c12:	33 24       	eor	r3, r3
    1c14:	35 f8       	bld	r3, 5
   for(sector = 0; sector < sectorPerCluster; sector++)
   {
     SD_readSingleBlock (firstSector + sector);
	

     for(i=0; i<bytesPerSector; i+=32)
    1c16:	0f 2e       	mov	r0, r31
    1c18:	fb e0       	ldi	r31, 0x0B	; 11
    1c1a:	2f 2e       	mov	r2, r31
    1c1c:	f0 2d       	mov	r31, r0
    1c1e:	19 83       	std	Y+1, r17	; 0x01
    1c20:	4f 82       	std	Y+7, r4	; 0x07
    1c22:	58 86       	std	Y+8, r5	; 0x08
    1c24:	69 86       	std	Y+9, r6	; 0x09
    1c26:	7a 86       	std	Y+10, r7	; 0x0a
    1c28:	4d 84       	ldd	r4, Y+13	; 0x0d
    1c2a:	5e 84       	ldd	r5, Y+14	; 0x0e
    1c2c:	6b 84       	ldd	r6, Y+11	; 0x0b
    1c2e:	7c 84       	ldd	r7, Y+12	; 0x0c

prevCluster = rootCluster; //root cluster

while(1)
{
   firstSector = getFirstSector (prevCluster);
    1c30:	6f 81       	ldd	r22, Y+7	; 0x07
    1c32:	78 85       	ldd	r23, Y+8	; 0x08
    1c34:	89 85       	ldd	r24, Y+9	; 0x09
    1c36:	9a 85       	ldd	r25, Y+10	; 0x0a
    1c38:	0e 94 d9 04 	call	0x9b2	; 0x9b2 <getFirstSector>
    1c3c:	4b 01       	movw	r8, r22
    1c3e:	5c 01       	movw	r10, r24

   for(sector = 0; sector < sectorPerCluster; sector++)
    1c40:	80 91 36 05 	lds	r24, 0x0536
    1c44:	90 91 37 05 	lds	r25, 0x0537
    1c48:	89 2b       	or	r24, r25
    1c4a:	09 f4       	brne	.+2      	; 0x1c4e <writeFile+0x450>
    1c4c:	8a c0       	rjmp	.+276    	; 0x1d62 <writeFile+0x564>
    1c4e:	10 e0       	ldi	r17, 0x00	; 0
    1c50:	29 81       	ldd	r18, Y+1	; 0x01
    1c52:	2b 87       	std	Y+11, r18	; 0x0b
    1c54:	89 82       	std	Y+1, r8	; 0x01
    1c56:	9a 82       	std	Y+2, r9	; 0x02
    1c58:	ab 82       	std	Y+3, r10	; 0x03
    1c5a:	bc 82       	std	Y+4, r11	; 0x04
    1c5c:	a1 2e       	mov	r10, r17
    1c5e:	9d 80       	ldd	r9, Y+5	; 0x05
    1c60:	be 80       	ldd	r11, Y+6	; 0x06
   {
     SD_readSingleBlock (firstSector + sector);
    1c62:	c9 80       	ldd	r12, Y+1	; 0x01
    1c64:	da 80       	ldd	r13, Y+2	; 0x02
    1c66:	eb 80       	ldd	r14, Y+3	; 0x03
    1c68:	fc 80       	ldd	r15, Y+4	; 0x04
    1c6a:	ca 0c       	add	r12, r10
    1c6c:	d1 1c       	adc	r13, r1
    1c6e:	e1 1c       	adc	r14, r1
    1c70:	f1 1c       	adc	r15, r1
    1c72:	c7 01       	movw	r24, r14
    1c74:	b6 01       	movw	r22, r12
    1c76:	0e 94 0d 17 	call	0x2e1a	; 0x2e1a <SD_readSingleBlock>
	

     for(i=0; i<bytesPerSector; i+=32)
    1c7a:	80 91 26 03 	lds	r24, 0x0326
    1c7e:	90 91 27 03 	lds	r25, 0x0327
    1c82:	89 2b       	or	r24, r25
    1c84:	09 f4       	brne	.+2      	; 0x1c88 <writeFile+0x48a>
    1c86:	60 c0       	rjmp	.+192    	; 0x1d48 <writeFile+0x54a>
     {
	    dir = (struct dir_Structure *) &buffer[i];

		if(fileCreatedFlag)   //to mark last directory entry with 0x00 (empty) mark
    1c88:	8b 84       	ldd	r8, Y+11	; 0x0b
    1c8a:	81 10       	cpse	r8, r1
    1c8c:	b6 c0       	rjmp	.+364    	; 0x1dfa <writeFile+0x5fc>
     SD_readSingleBlock (firstSector + sector);
	

     for(i=0; i<bytesPerSector; i+=32)
     {
	    dir = (struct dir_Structure *) &buffer[i];
    1c8e:	e6 e3       	ldi	r30, 0x36	; 54
    1c90:	f3 e0       	ldi	r31, 0x03	; 3
   for(sector = 0; sector < sectorPerCluster; sector++)
   {
     SD_readSingleBlock (firstSector + sector);
	

     for(i=0; i<bytesPerSector; i+=32)
    1c92:	00 e0       	ldi	r16, 0x00	; 0
    1c94:	10 e0       	ldi	r17, 0x00	; 0
    1c96:	28 2d       	mov	r18, r8
    1c98:	05 c0       	rjmp	.+10     	; 0x1ca4 <writeFile+0x4a6>
     {
	    dir = (struct dir_Structure *) &buffer[i];
    1c9a:	f8 01       	movw	r30, r16
    1c9c:	ea 5c       	subi	r30, 0xCA	; 202
    1c9e:	fc 4f       	sbci	r31, 0xFC	; 252

		if(fileCreatedFlag)   //to mark last directory entry with 0x00 (empty) mark
    1ca0:	21 11       	cpse	r18, r1
    1ca2:	ad c0       	rjmp	.+346    	; 0x1dfe <writeFile+0x600>
		   //dir->name[0] = EMPTY;
		   //SD_writeSingleBlock (firstSector + sector);
           return 0;
         }

        if((dir->name[0] == EMPTY) || (dir->name[0] == DELETED))  //looking for an empty slot to enter file info
    1ca4:	80 81       	ld	r24, Z
    1ca6:	88 23       	and	r24, r24
    1ca8:	19 f0       	breq	.+6      	; 0x1cb0 <writeFile+0x4b2>
    1caa:	85 3e       	cpi	r24, 0xE5	; 229
    1cac:	09 f0       	breq	.+2      	; 0x1cb0 <writeFile+0x4b2>
    1cae:	41 c0       	rjmp	.+130    	; 0x1d32 <writeFile+0x534>
    1cb0:	a9 2d       	mov	r26, r9
    1cb2:	bb 2d       	mov	r27, r11
    1cb4:	9f 01       	movw	r18, r30
   for(sector = 0; sector < sectorPerCluster; sector++)
   {
     SD_readSingleBlock (firstSector + sector);
	

     for(i=0; i<bytesPerSector; i+=32)
    1cb6:	82 2d       	mov	r24, r2
    1cb8:	af 01       	movw	r20, r30
         }

        if((dir->name[0] == EMPTY) || (dir->name[0] == DELETED))  //looking for an empty slot to enter file info
		{
		  for(j=0; j<11; j++)
  			dir->name[j] = fileName[j];
    1cba:	9d 91       	ld	r25, X+
    1cbc:	f9 01       	movw	r30, r18
    1cbe:	91 93       	st	Z+, r25
    1cc0:	9f 01       	movw	r18, r30
    1cc2:	81 50       	subi	r24, 0x01	; 1
           return 0;
         }

        if((dir->name[0] == EMPTY) || (dir->name[0] == DELETED))  //looking for an empty slot to enter file info
		{
		  for(j=0; j<11; j++)
    1cc4:	d1 f7       	brne	.-12     	; 0x1cba <writeFile+0x4bc>
    1cc6:	fa 01       	movw	r30, r20
  			dir->name[j] = fileName[j];
		  dir->attrib = ATTR_ARCHIVE;	//settting file attribute as 'archive'
    1cc8:	33 86       	std	Z+11, r3	; 0x0b
		  dir->NTreserved = 0;			//always set to 0
    1cca:	14 86       	std	Z+12, r1	; 0x0c
		  dir->timeTenth = 0;			//always set to 0
    1ccc:	15 86       	std	Z+13, r1	; 0x0d
		  dir->createTime = timeFAT; 	//setting time of file creation, obtained from RTC
    1cce:	20 91 30 03 	lds	r18, 0x0330
    1cd2:	30 91 31 03 	lds	r19, 0x0331
    1cd6:	37 87       	std	Z+15, r19	; 0x0f
    1cd8:	26 87       	std	Z+14, r18	; 0x0e
		  dir->createDate = dateFAT; 	//setting date of file creation, obtained from RTC
    1cda:	80 91 1c 03 	lds	r24, 0x031C
    1cde:	90 91 1d 03 	lds	r25, 0x031D
    1ce2:	91 8b       	std	Z+17, r25	; 0x11
    1ce4:	80 8b       	std	Z+16, r24	; 0x10
		  dir->lastAccessDate = 0;   	//date of last access ignored
    1ce6:	13 8a       	std	Z+19, r1	; 0x13
    1ce8:	12 8a       	std	Z+18, r1	; 0x12
		  dir->writeTime = timeFAT;  	//setting new time of last write, obtained from RTC
    1cea:	37 8b       	std	Z+23, r19	; 0x17
    1cec:	26 8b       	std	Z+22, r18	; 0x16
		  dir->writeDate = dateFAT;  	//setting new date of last write, obtained from RTC
    1cee:	91 8f       	std	Z+25, r25	; 0x19
    1cf0:	80 8f       	std	Z+24, r24	; 0x18
		  dir->firstClusterHI = firstClusterHigh;
    1cf2:	75 8a       	std	Z+21, r7	; 0x15
    1cf4:	64 8a       	std	Z+20, r6	; 0x14
		  dir->firstClusterLO = firstClusterLow;
    1cf6:	53 8e       	std	Z+27, r5	; 0x1b
    1cf8:	42 8e       	std	Z+26, r4	; 0x1a
		  dir->fileSize = fileSize;
    1cfa:	80 91 22 03 	lds	r24, 0x0322
    1cfe:	90 91 23 03 	lds	r25, 0x0323
    1d02:	a0 91 24 03 	lds	r26, 0x0324
    1d06:	b0 91 25 03 	lds	r27, 0x0325
    1d0a:	84 8f       	std	Z+28, r24	; 0x1c
    1d0c:	95 8f       	std	Z+29, r25	; 0x1d
    1d0e:	a6 8f       	std	Z+30, r26	; 0x1e
    1d10:	b7 8f       	std	Z+31, r27	; 0x1f

		  SD_writeSingleBlock (firstSector + sector);
    1d12:	c7 01       	movw	r24, r14
    1d14:	b6 01       	movw	r22, r12
    1d16:	0e 94 3e 17 	call	0x2e7c	; 0x2e7c <SD_writeSingleBlock>

		  //TX_NEWLINE;
		  //TX_NEWLINE;
		  //transmitString_F(PSTR(" File Created! "));

		  freeMemoryUpdate (REMOVE, fileSize); //updating free memory count in FSinfo sector
    1d1a:	40 91 22 03 	lds	r20, 0x0322
    1d1e:	50 91 23 03 	lds	r21, 0x0323
    1d22:	60 91 24 03 	lds	r22, 0x0324
    1d26:	70 91 25 03 	lds	r23, 0x0325
    1d2a:	81 e0       	ldi	r24, 0x01	; 1
    1d2c:	0e 94 8f 08 	call	0x111e	; 0x111e <freeMemoryUpdate>
		  dir->firstClusterHI = firstClusterHigh;
		  dir->firstClusterLO = firstClusterLow;
		  dir->fileSize = fileSize;

		  SD_writeSingleBlock (firstSector + sector);
		  fileCreatedFlag = 1;
    1d30:	21 e0       	ldi	r18, 0x01	; 1
   for(sector = 0; sector < sectorPerCluster; sector++)
   {
     SD_readSingleBlock (firstSector + sector);
	

     for(i=0; i<bytesPerSector; i+=32)
    1d32:	00 5e       	subi	r16, 0xE0	; 224
    1d34:	1f 4f       	sbci	r17, 0xFF	; 255
    1d36:	80 91 26 03 	lds	r24, 0x0326
    1d3a:	90 91 27 03 	lds	r25, 0x0327
    1d3e:	08 17       	cp	r16, r24
    1d40:	19 07       	cpc	r17, r25
    1d42:	08 f4       	brcc	.+2      	; 0x1d46 <writeFile+0x548>
    1d44:	aa cf       	rjmp	.-172    	; 0x1c9a <writeFile+0x49c>
    1d46:	2b 87       	std	Y+11, r18	; 0x0b

while(1)
{
   firstSector = getFirstSector (prevCluster);

   for(sector = 0; sector < sectorPerCluster; sector++)
    1d48:	a3 94       	inc	r10
    1d4a:	80 91 36 05 	lds	r24, 0x0536
    1d4e:	90 91 37 05 	lds	r25, 0x0537
    1d52:	2a 2d       	mov	r18, r10
    1d54:	30 e0       	ldi	r19, 0x00	; 0
    1d56:	28 17       	cp	r18, r24
    1d58:	39 07       	cpc	r19, r25
    1d5a:	08 f4       	brcc	.+2      	; 0x1d5e <writeFile+0x560>
    1d5c:	82 cf       	rjmp	.-252    	; 0x1c62 <writeFile+0x464>
    1d5e:	8b 84       	ldd	r8, Y+11	; 0x0b
    1d60:	89 82       	std	Y+1, r8	; 0x01
	     
        }
     }
   }

   cluster = getSetNextCluster (prevCluster, GET, 0);
    1d62:	00 e0       	ldi	r16, 0x00	; 0
    1d64:	10 e0       	ldi	r17, 0x00	; 0
    1d66:	98 01       	movw	r18, r16
    1d68:	40 e0       	ldi	r20, 0x00	; 0
    1d6a:	6f 81       	ldd	r22, Y+7	; 0x07
    1d6c:	78 85       	ldd	r23, Y+8	; 0x08
    1d6e:	89 85       	ldd	r24, Y+9	; 0x09
    1d70:	9a 85       	ldd	r25, Y+10	; 0x0a
    1d72:	0e 94 04 05 	call	0xa08	; 0xa08 <getSetNextCluster>
    1d76:	6b 01       	movw	r12, r22
    1d78:	7c 01       	movw	r14, r24

   if(cluster > 0x0ffffff6)
    1d7a:	67 3f       	cpi	r22, 0xF7	; 247
    1d7c:	2f ef       	ldi	r18, 0xFF	; 255
    1d7e:	72 07       	cpc	r23, r18
    1d80:	82 07       	cpc	r24, r18
    1d82:	2f e0       	ldi	r18, 0x0F	; 15
    1d84:	92 07       	cpc	r25, r18
    1d86:	40 f1       	brcs	.+80     	; 0x1dd8 <writeFile+0x5da>
   {
      if(cluster == EOF)   //this situation will come when total files in root is multiple of (32*sectorPerCluster)
    1d88:	8f ef       	ldi	r24, 0xFF	; 255
    1d8a:	c8 16       	cp	r12, r24
    1d8c:	d8 06       	cpc	r13, r24
    1d8e:	e8 06       	cpc	r14, r24
    1d90:	8f e0       	ldi	r24, 0x0F	; 15
    1d92:	f8 06       	cpc	r15, r24
    1d94:	d9 f4       	brne	.+54     	; 0x1dcc <writeFile+0x5ce>
	  {  
		cluster = searchNextFreeCluster(prevCluster); //find next cluster for root directory entries
    1d96:	6f 81       	ldd	r22, Y+7	; 0x07
    1d98:	78 85       	ldd	r23, Y+8	; 0x08
    1d9a:	89 85       	ldd	r24, Y+9	; 0x09
    1d9c:	9a 85       	ldd	r25, Y+10	; 0x0a
    1d9e:	0e 94 77 07 	call	0xeee	; 0xeee <searchNextFreeCluster>
    1da2:	6b 01       	movw	r12, r22
    1da4:	7c 01       	movw	r14, r24
		getSetNextCluster(prevCluster, SET, cluster); //link the new cluster of root to the previous cluster
    1da6:	8b 01       	movw	r16, r22
    1da8:	9c 01       	movw	r18, r24
    1daa:	41 e0       	ldi	r20, 0x01	; 1
    1dac:	6f 81       	ldd	r22, Y+7	; 0x07
    1dae:	78 85       	ldd	r23, Y+8	; 0x08
    1db0:	89 85       	ldd	r24, Y+9	; 0x09
    1db2:	9a 85       	ldd	r25, Y+10	; 0x0a
    1db4:	0e 94 04 05 	call	0xa08	; 0xa08 <getSetNextCluster>
		getSetNextCluster(cluster, SET, EOF);  //set the new cluster as end of the root directory
    1db8:	0f ef       	ldi	r16, 0xFF	; 255
    1dba:	1f ef       	ldi	r17, 0xFF	; 255
    1dbc:	2f ef       	ldi	r18, 0xFF	; 255
    1dbe:	3f e0       	ldi	r19, 0x0F	; 15
    1dc0:	41 e0       	ldi	r20, 0x01	; 1
    1dc2:	c7 01       	movw	r24, r14
    1dc4:	b6 01       	movw	r22, r12
    1dc6:	0e 94 04 05 	call	0xa08	; 0xa08 <getSetNextCluster>
    1dca:	06 c0       	rjmp	.+12     	; 0x1dd8 <writeFile+0x5da>
      } 

      else
      {	
	    transmitString_F(PSTR("End of Cluster Chain")); 
    1dcc:	81 e0       	ldi	r24, 0x01	; 1
    1dce:	91 e0       	ldi	r25, 0x01	; 1
    1dd0:	0e 94 ee 17 	call	0x2fdc	; 0x2fdc <transmitString_F>
	    return 1;
    1dd4:	81 e0       	ldi	r24, 0x01	; 1
    1dd6:	18 c0       	rjmp	.+48     	; 0x1e08 <writeFile+0x60a>
      }
   }
   if(cluster == 0) {transmitString_F(PSTR("Error in getting cluster")); return 1;}
   
   prevCluster = cluster;
    1dd8:	cf 82       	std	Y+7, r12	; 0x07
    1dda:	d8 86       	std	Y+8, r13	; 0x08
    1ddc:	e9 86       	std	Y+9, r14	; 0x09
    1dde:	fa 86       	std	Y+10, r15	; 0x0a
      {	
	    transmitString_F(PSTR("End of Cluster Chain")); 
	    return 1;
      }
   }
   if(cluster == 0) {transmitString_F(PSTR("Error in getting cluster")); return 1;}
    1de0:	cd 28       	or	r12, r13
    1de2:	ce 28       	or	r12, r14
    1de4:	cf 28       	or	r12, r15
    1de6:	09 f0       	breq	.+2      	; 0x1dea <writeFile+0x5ec>
    1de8:	23 cf       	rjmp	.-442    	; 0x1c30 <writeFile+0x432>
    1dea:	86 e1       	ldi	r24, 0x16	; 22
    1dec:	91 e0       	ldi	r25, 0x01	; 1
    1dee:	0e 94 ee 17 	call	0x2fdc	; 0x2fdc <transmitString_F>
    1df2:	81 e0       	ldi	r24, 0x01	; 1
    1df4:	09 c0       	rjmp	.+18     	; 0x1e08 <writeFile+0x60a>

  sector = (fileSize - (clusterCount * sectorPerCluster * bytesPerSector)) / bytesPerSector; //last sector number of the last cluster of the file
  start = 1;
}
else if(j == 2) 
   return 1; //invalid file name
    1df6:	81 e0       	ldi	r24, 0x01	; 1
    1df8:	07 c0       	rjmp	.+14     	; 0x1e08 <writeFile+0x60a>

		if(fileCreatedFlag)   //to mark last directory entry with 0x00 (empty) mark
		 { 					  //indicating end of the directory file list
		   //dir->name[0] = EMPTY;
		   //SD_writeSingleBlock (firstSector + sector);
           return 0;
    1dfa:	80 e0       	ldi	r24, 0x00	; 0
    1dfc:	05 c0       	rjmp	.+10     	; 0x1e08 <writeFile+0x60a>
    1dfe:	80 e0       	ldi	r24, 0x00	; 0
    1e00:	03 c0       	rjmp	.+6      	; 0x1e08 <writeFile+0x60a>
   
   
   do
   {

	 data = dataString[k++];
    1e02:	60 e0       	ldi	r22, 0x00	; 0
    1e04:	70 e0       	ldi	r23, 0x00	; 0
    1e06:	66 ce       	rjmp	.-820    	; 0x1ad4 <writeFile+0x2d6>
   
   prevCluster = cluster;
 }
 
 return 0;
}
    1e08:	60 96       	adiw	r28, 0x10	; 16
    1e0a:	0f b6       	in	r0, 0x3f	; 63
    1e0c:	f8 94       	cli
    1e0e:	de bf       	out	0x3e, r29	; 62
    1e10:	0f be       	out	0x3f, r0	; 63
    1e12:	cd bf       	out	0x3d, r28	; 61
    1e14:	df 91       	pop	r29
    1e16:	cf 91       	pop	r28
    1e18:	1f 91       	pop	r17
    1e1a:	0f 91       	pop	r16
    1e1c:	ff 90       	pop	r15
    1e1e:	ef 90       	pop	r14
    1e20:	df 90       	pop	r13
    1e22:	cf 90       	pop	r12
    1e24:	bf 90       	pop	r11
    1e26:	af 90       	pop	r10
    1e28:	9f 90       	pop	r9
    1e2a:	8f 90       	pop	r8
    1e2c:	7f 90       	pop	r7
    1e2e:	6f 90       	pop	r6
    1e30:	5f 90       	pop	r5
    1e32:	4f 90       	pop	r4
    1e34:	3f 90       	pop	r3
    1e36:	2f 90       	pop	r2
    1e38:	08 95       	ret

00001e3a <http200ok>:
}


uint16_t http200ok(void)
{
	return(fill_tcp_data_p(buf,0,PSTR("HTTP/1.0 200 OK\r\nContent-Type: text/html\r\nPragma: no-cache\r\n\r\n")));
    1e3a:	4f e2       	ldi	r20, 0x2F	; 47
    1e3c:	51 e0       	ldi	r21, 0x01	; 1
    1e3e:	60 e0       	ldi	r22, 0x00	; 0
    1e40:	70 e0       	ldi	r23, 0x00	; 0
    1e42:	85 ed       	ldi	r24, 0xD5	; 213
    1e44:	90 e0       	ldi	r25, 0x00	; 0
    1e46:	0e 94 73 13 	call	0x26e6	; 0x26e6 <fill_tcp_data_p>
	}
    1e4a:	08 95       	ret

00001e4c <print_webpage>:

uint16_t print_webpage(uint8_t *buf)
{
    1e4c:	cf 93       	push	r28
    1e4e:	df 93       	push	r29
    1e50:	ec 01       	movw	r28, r24
	uint16_t plen;
	//getcurrenttemp(temp_string); get temperature of the cell
	//getcurrenttemp(current_string); get current of the cell
	//getcurrenttemp(voltage_string); get voltage of the cell
	
	plen=http200ok();
    1e52:	0e 94 1d 0f 	call	0x1e3a	; 0x1e3a <http200ok>
  
	plen=fill_tcp_data_p(buf,plen,PSTR("<pre>"));
    1e56:	4e e6       	ldi	r20, 0x6E	; 110
    1e58:	51 e0       	ldi	r21, 0x01	; 1
    1e5a:	bc 01       	movw	r22, r24
    1e5c:	ce 01       	movw	r24, r28
    1e5e:	0e 94 73 13 	call	0x26e6	; 0x26e6 <fill_tcp_data_p>
	plen=fill_tcp_data_p(buf,plen,PSTR("<center><p><h1> Web Server Application for Diagnostic Devices in Fuel Cell Systems V1.0 |LENA OVGU </h1></p></h2>         "));
    1e62:	44 e7       	ldi	r20, 0x74	; 116
    1e64:	51 e0       	ldi	r21, 0x01	; 1
    1e66:	bc 01       	movw	r22, r24
    1e68:	ce 01       	movw	r24, r28
    1e6a:	0e 94 73 13 	call	0x26e6	; 0x26e6 <fill_tcp_data_p>
	plen=fill_tcp_data_p(buf,plen,PSTR("<left><style>body{background-color:grey;font:10pt/12pt fantasy;</style><h2>"));
    1e6e:	4f ee       	ldi	r20, 0xEF	; 239
    1e70:	51 e0       	ldi	r21, 0x01	; 1
    1e72:	bc 01       	movw	r22, r24
    1e74:	ce 01       	movw	r24, r28
    1e76:	0e 94 73 13 	call	0x26e6	; 0x26e6 <fill_tcp_data_p>
    
	plen=fill_tcp_data_p(buf,plen,PSTR("Sensors on Web </h2>   "));
    1e7a:	4b e3       	ldi	r20, 0x3B	; 59
    1e7c:	52 e0       	ldi	r21, 0x02	; 2
    1e7e:	bc 01       	movw	r22, r24
    1e80:	ce 01       	movw	r24, r28
    1e82:	0e 94 73 13 	call	0x26e6	; 0x26e6 <fill_tcp_data_p>
		
	plen=fill_tcp_data_p(buf,plen,PSTR("<left><h2>Current Temperature is = 36 C </h2>   "));
    1e86:	43 e5       	ldi	r20, 0x53	; 83
    1e88:	52 e0       	ldi	r21, 0x02	; 2
    1e8a:	bc 01       	movw	r22, r24
    1e8c:	ce 01       	movw	r24, r28
    1e8e:	0e 94 73 13 	call	0x26e6	; 0x26e6 <fill_tcp_data_p>
		while(temp_string[i]){
			buf[TCP_CHECKSUM_L_P+3+plen]=temp_string[i+1];
			plen++;
		}
	
	plen=fill_tcp_data_p(buf,plen,PSTR("<left><h2>Current Density is = 4.15 A </h2>   "));
    1e92:	44 e8       	ldi	r20, 0x84	; 132
    1e94:	52 e0       	ldi	r21, 0x02	; 2
    1e96:	bc 01       	movw	r22, r24
    1e98:	ce 01       	movw	r24, r28
    1e9a:	0e 94 73 13 	call	0x26e6	; 0x26e6 <fill_tcp_data_p>
	plen=fill_tcp_data_p(buf,plen,PSTR("<left><h2>Voltage is = 45 V </h2>     "));
    1e9e:	43 eb       	ldi	r20, 0xB3	; 179
    1ea0:	52 e0       	ldi	r21, 0x02	; 2
    1ea2:	bc 01       	movw	r22, r24
    1ea4:	ce 01       	movw	r24, r28
    1ea6:	0e 94 73 13 	call	0x26e6	; 0x26e6 <fill_tcp_data_p>
	plen=fill_tcp_data_p(buf,plen,PSTR("<hr><br></form> Developed by LENA-OVGU  \   version 1.0"));
    1eaa:	4a ed       	ldi	r20, 0xDA	; 218
    1eac:	52 e0       	ldi	r21, 0x02	; 2
    1eae:	bc 01       	movw	r22, r24
    1eb0:	ce 01       	movw	r24, r28
    1eb2:	0e 94 73 13 	call	0x26e6	; 0x26e6 <fill_tcp_data_p>
	plen=fill_tcp_data_p(buf,plen,PSTR("<h2>"));
    1eb6:	41 e1       	ldi	r20, 0x11	; 17
    1eb8:	53 e0       	ldi	r21, 0x03	; 3
    1eba:	bc 01       	movw	r22, r24
    1ebc:	ce 01       	movw	r24, r28
    1ebe:	0e 94 73 13 	call	0x26e6	; 0x26e6 <fill_tcp_data_p>
	plen=fill_tcp_data(buf,plen,baseurl);
    1ec2:	40 e6       	ldi	r20, 0x60	; 96
    1ec4:	50 e0       	ldi	r21, 0x00	; 0
    1ec6:	bc 01       	movw	r22, r24
    1ec8:	ce 01       	movw	r24, r28
    1eca:	0e 94 a7 13 	call	0x274e	; 0x274e <fill_tcp_data>


	return(plen);
}
    1ece:	df 91       	pop	r29
    1ed0:	cf 91       	pop	r28
    1ed2:	08 95       	ret

00001ed4 <port_init>:
//======================================================================
//SD CARD
//===============================================================
void port_init(void)
{
	PORTA = 0x00;
    1ed4:	1b ba       	out	0x1b, r1	; 27
	DDRA  = 0x03; //PA0 - LED GREEN, PA1 - LED RED
    1ed6:	83 e0       	ldi	r24, 0x03	; 3
    1ed8:	8a bb       	out	0x1a, r24	; 26
	//PORTB = 0x00; //pull-up on for pushbutton
	//DDRB  = 0xBF; //MISO line i/p, rest o/p
	PORTC = 0x00;
    1eda:	15 ba       	out	0x15, r1	; 21
	DDRC  = 0x00;
    1edc:	14 ba       	out	0x14, r1	; 20
	PORTD = 0x00;
    1ede:	12 ba       	out	0x12, r1	; 18
	DDRD  = 0x00;
    1ee0:	11 ba       	out	0x11, r1	; 17
    1ee2:	08 95       	ret

00001ee4 <init_devices>:
}

//call this routine to initialize all peripherals
void init_devices(void)
{
	cli();  //all interrupts disabled
    1ee4:	f8 94       	cli
	port_init(); //init Ports
    1ee6:	0e 94 6a 0f 	call	0x1ed4	; 0x1ed4 <port_init>
	swspi_init(); //start SPI
    1eea:	0e 94 98 17 	call	0x2f30	; 0x2f30 <swspi_init>
	usart_init(9600); //start UART
    1eee:	60 e8       	ldi	r22, 0x80	; 128
    1ef0:	75 e2       	ldi	r23, 0x25	; 37
    1ef2:	80 e0       	ldi	r24, 0x00	; 0
    1ef4:	90 e0       	ldi	r25, 0x00	; 0
    1ef6:	0e 94 b8 17 	call	0x2f70	; 0x2f70 <usart_init>
    1efa:	08 95       	ret

00001efc <blinkRedLED>:

void blinkRedLED(void)
{
	while(1)  //blink red LED continuously, if error
	{
		RED_LED_ON;
    1efc:	d9 9a       	sbi	0x1b, 1	; 27
	#else
		//round up by default
		__ticks_dc = (uint32_t)(ceil(fabs(__tmp)));
	#endif

	__builtin_avr_delay_cycles(__ticks_dc);
    1efe:	2f e1       	ldi	r18, 0x1F	; 31
    1f00:	81 ea       	ldi	r24, 0xA1	; 161
    1f02:	97 e0       	ldi	r25, 0x07	; 7
    1f04:	21 50       	subi	r18, 0x01	; 1
    1f06:	80 40       	sbci	r24, 0x00	; 0
    1f08:	90 40       	sbci	r25, 0x00	; 0
    1f0a:	e1 f7       	brne	.-8      	; 0x1f04 <blinkRedLED+0x8>
    1f0c:	00 c0       	rjmp	.+0      	; 0x1f0e <blinkRedLED+0x12>
    1f0e:	00 00       	nop
		_delay_ms(200);
		RED_LED_OFF;
    1f10:	d9 98       	cbi	0x1b, 1	; 27
    1f12:	2f e1       	ldi	r18, 0x1F	; 31
    1f14:	81 ea       	ldi	r24, 0xA1	; 161
    1f16:	97 e0       	ldi	r25, 0x07	; 7
    1f18:	21 50       	subi	r18, 0x01	; 1
    1f1a:	80 40       	sbci	r24, 0x00	; 0
    1f1c:	90 40       	sbci	r25, 0x00	; 0
    1f1e:	e1 f7       	brne	.-8      	; 0x1f18 <blinkRedLED+0x1c>
    1f20:	00 c0       	rjmp	.+0      	; 0x1f22 <blinkRedLED+0x26>
    1f22:	00 00       	nop
    1f24:	eb cf       	rjmp	.-42     	; 0x1efc <blinkRedLED>

00001f26 <GetTime>:
//******************************************************************
//Function to form time string for sending it to LCD & UART

unsigned char GetTime(void)
{
	time[8] = 0x00;	//NULL
    1f26:	10 92 32 06 	sts	0x0632, r1
	time[7] = '0';	//seconds(1's)
    1f2a:	80 e3       	ldi	r24, 0x30	; 48
    1f2c:	80 93 31 06 	sts	0x0631, r24
	time[6] = '0';	//seconds(10's)
    1f30:	80 93 30 06 	sts	0x0630, r24
	time[5] = ':';
    1f34:	8a e3       	ldi	r24, 0x3A	; 58
    1f36:	80 93 2f 06 	sts	0x062F, r24
	
	time[4] = '2';
    1f3a:	92 e3       	ldi	r25, 0x32	; 50
    1f3c:	90 93 2e 06 	sts	0x062E, r25
	time[3] = '2';
    1f40:	90 93 2d 06 	sts	0x062D, r25
	time[2] = ':';
    1f44:	80 93 2c 06 	sts	0x062C, r24
	
	time[1] = '4';
    1f48:	84 e3       	ldi	r24, 0x34	; 52
    1f4a:	80 93 2b 06 	sts	0x062B, r24
	time[0] = '1';
    1f4e:	81 e3       	ldi	r24, 0x31	; 49
    1f50:	80 93 2a 06 	sts	0x062A, r24

	return 0;
}
    1f54:	80 e0       	ldi	r24, 0x00	; 0
    1f56:	08 95       	ret

00001f58 <GetDate>:
//******************************************************************
//Function to form date string for sending it to LCD & UART
//****************************************************************** 
unsigned char GetDate(void)
{
  date[10] = 0x00;  //NULL
    1f58:	10 92 41 06 	sts	0x0641, r1
  date[9] = '4';
    1f5c:	84 e3       	ldi	r24, 0x34	; 52
    1f5e:	80 93 40 06 	sts	0x0640, r24
  date[8] = '1';
    1f62:	81 e3       	ldi	r24, 0x31	; 49
    1f64:	80 93 3f 06 	sts	0x063F, r24
  date[7] = '0';
    1f68:	30 e3       	ldi	r19, 0x30	; 48
    1f6a:	30 93 3e 06 	sts	0x063E, r19
  date[6] = '2';
    1f6e:	92 e3       	ldi	r25, 0x32	; 50
    1f70:	90 93 3d 06 	sts	0x063D, r25
  date[5] = '/';
    1f74:	2f e2       	ldi	r18, 0x2F	; 47
    1f76:	20 93 3c 06 	sts	0x063C, r18
  date[4] = '8';
    1f7a:	98 e3       	ldi	r25, 0x38	; 56
    1f7c:	90 93 3b 06 	sts	0x063B, r25
  date[3] = '0';
    1f80:	30 93 3a 06 	sts	0x063A, r19
  date[2] = '/';
    1f84:	20 93 39 06 	sts	0x0639, r18
  date[1] = '8';
    1f88:	90 93 38 06 	sts	0x0638, r25
  date[0] = '1';
    1f8c:	80 93 37 06 	sts	0x0637, r24
  
  return 0;
}
    1f90:	80 e0       	ldi	r24, 0x00	; 0
    1f92:	08 95       	ret

00001f94 <GetTemperature>:
//Paramtr : void
//returns : None (modifies the global string 'temperature')
//********************************************************************
void GetTemperature(void)
{
	temperature[6] = 'C';  //centigrade
    1f94:	83 e4       	ldi	r24, 0x43	; 67
    1f96:	80 93 d9 05 	sts	0x05D9, r24
	temperature[5] = '0'; //ascii value for degree symbol
    1f9a:	80 e3       	ldi	r24, 0x30	; 48
    1f9c:	80 93 d8 05 	sts	0x05D8, r24
	temperature[4] = '0';
    1fa0:	80 93 d7 05 	sts	0x05D7, r24
	temperature[3] = '.';
    1fa4:	8e e2       	ldi	r24, 0x2E	; 46
    1fa6:	80 93 d6 05 	sts	0x05D6, r24
	temperature[2] = '6';
    1faa:	86 e3       	ldi	r24, 0x36	; 54
    1fac:	80 93 d5 05 	sts	0x05D5, r24
	temperature[1] = '3';
    1fb0:	83 e3       	ldi	r24, 0x33	; 51
    1fb2:	80 93 d4 05 	sts	0x05D4, r24
	temperature[0] = '+';
    1fb6:	8b e2       	ldi	r24, 0x2B	; 43
    1fb8:	80 93 d3 05 	sts	0x05D3, r24
    1fbc:	08 95       	ret

00001fbe <Getvoltage2>:
}

void Getvoltage2(void)
{
	voltage2[6] = 'V';  //centigrade
    1fbe:	86 e5       	ldi	r24, 0x56	; 86
    1fc0:	80 93 26 06 	sts	0x0626, r24
	voltage2[5] = '0'; //ascii value for degree symbol
    1fc4:	80 e3       	ldi	r24, 0x30	; 48
    1fc6:	80 93 25 06 	sts	0x0625, r24
	voltage2[4] = '0';
    1fca:	80 93 24 06 	sts	0x0624, r24
	voltage2[3] = '.';
    1fce:	8e e2       	ldi	r24, 0x2E	; 46
    1fd0:	80 93 23 06 	sts	0x0623, r24
	voltage2[2] = '5';
    1fd4:	85 e3       	ldi	r24, 0x35	; 53
    1fd6:	80 93 22 06 	sts	0x0622, r24
	voltage2[1] = '4';
    1fda:	84 e3       	ldi	r24, 0x34	; 52
    1fdc:	80 93 21 06 	sts	0x0621, r24
	voltage2[0] = '+';
    1fe0:	8b e2       	ldi	r24, 0x2B	; 43
    1fe2:	80 93 20 06 	sts	0x0620, r24
    1fe6:	08 95       	ret

00001fe8 <Getcurrent2>:
}

void Getcurrent2(void)
{
	current2[6] = 'A';  //centigrade
    1fe8:	81 e4       	ldi	r24, 0x41	; 65
    1fea:	80 93 cc 05 	sts	0x05CC, r24
	current2[5] = '0'; //ascii value for degree symbol
    1fee:	80 e3       	ldi	r24, 0x30	; 48
    1ff0:	80 93 cb 05 	sts	0x05CB, r24
	current2[4] = '5';
    1ff4:	85 e3       	ldi	r24, 0x35	; 53
    1ff6:	80 93 ca 05 	sts	0x05CA, r24
	current2[3] = '1';
    1ffa:	81 e3       	ldi	r24, 0x31	; 49
    1ffc:	80 93 c9 05 	sts	0x05C9, r24
	current2[2] = '.';
    2000:	8e e2       	ldi	r24, 0x2E	; 46
    2002:	80 93 c8 05 	sts	0x05C8, r24
	current2[1] = '4';
    2006:	84 e3       	ldi	r24, 0x34	; 52
    2008:	80 93 c7 05 	sts	0x05C7, r24
	current2[0] = '+';
    200c:	8b e2       	ldi	r24, 0x2B	; 43
    200e:	80 93 c6 05 	sts	0x05C6, r24
    2012:	08 95       	ret

00002014 <main>:

//=====================================================================

//===================================================================================================================
//PROGRAM MAIN
int main(void){
    2014:	cf 93       	push	r28
    2016:	df 93       	push	r29
    2018:	cd b7       	in	r28, 0x3d	; 61
    201a:	de b7       	in	r29, 0x3e	; 62
    201c:	2d 97       	sbiw	r28, 0x0d	; 13
    201e:	0f b6       	in	r0, 0x3f	; 63
    2020:	f8 94       	cli
    2022:	de bf       	out	0x3e, r29	; 62
    2024:	0f be       	out	0x3f, r0	; 63
    2026:	cd bf       	out	0x3d, r28	; 61
    2028:	10 e0       	ldi	r17, 0x00	; 0
    202a:	81 2f       	mov	r24, r17
    202c:	8a 95       	dec	r24
    202e:	f1 f7       	brne	.-4      	; 0x202c <main+0x18>
	
	//first for WEB SERVER
	//===================================================
	_delay_loop_1(0); // 60us
	DDRB|= (1<<DDB1); // LED, enable PB1, LED as output
    2030:	b9 9a       	sbi	0x17, 1	; 23
	LEDOFF;           // related to ENC28j60
    2032:	c1 9a       	sbi	0x18, 1	; 24
	//==============================================================================
	
	//initiliaze the UART// currently it is not needed
	usart_init(9600); /*initialize UART with baud rate 9600*/
    2034:	60 e8       	ldi	r22, 0x80	; 128
    2036:	75 e2       	ldi	r23, 0x25	; 37
    2038:	80 e0       	ldi	r24, 0x00	; 0
    203a:	90 e0       	ldi	r25, 0x00	; 0
    203c:	0e 94 b8 17 	call	0x2f70	; 0x2f70 <usart_init>
	uint8_t payloadlen=0;
	char str[30];
	
	//===========================================================================
	//initialize the hardware driver for the enc28j60
	enc28j60Init(mymac);
    2040:	83 e7       	ldi	r24, 0x73	; 115
    2042:	90 e0       	ldi	r25, 0x00	; 0
    2044:	0e 94 59 03 	call	0x6b2	; 0x6b2 <enc28j60Init>
	enc28j60clkout(2); // change clkout from 6.25MHz to 12.5MHz
    2048:	82 e0       	ldi	r24, 0x02	; 2
    204a:	0e 94 53 03 	call	0x6a6	; 0x6a6 <enc28j60clkout>
    204e:	1a 95       	dec	r17
    2050:	f1 f7       	brne	.-4      	; 0x204e <main+0x3a>
	_delay_loop_1(0); // 60us
	enc28j60PhyWrite(PHLCON,0x476);
    2052:	66 e7       	ldi	r22, 0x76	; 118
    2054:	74 e0       	ldi	r23, 0x04	; 4
    2056:	84 e1       	ldi	r24, 0x14	; 20
    2058:	0e 94 37 03 	call	0x66e	; 0x66e <enc28j60PhyWrite>
	init_udp_or_www_server(mymac,myip); //init the ethernet/ip layer:// or better to use init_ip_arp_udp_tcp(mymac,myip,MYWWWPORT);
    205c:	69 e7       	ldi	r22, 0x79	; 121
    205e:	70 e0       	ldi	r23, 0x00	; 0
    2060:	83 e7       	ldi	r24, 0x73	; 115
    2062:	90 e0       	ldi	r25, 0x00	; 0
    2064:	0e 94 39 14 	call	0x2872	; 0x2872 <init_udp_or_www_server>
	www_server_port(MYWWWPORT);  //this mywwport is previously defined to be 80
    2068:	80 e5       	ldi	r24, 0x50	; 80
    206a:	90 e0       	ldi	r25, 0x00	; 0
    206c:	0e 94 4b 14 	call	0x2896	; 0x2896 <www_server_port>
	//===========================================================================
	// initialize i2c function library
	void i2cInit(void);
	void i2cSetLocalDeviceAddr(u08 deviceAddr, u08 genCallEn);                    // set local device address and allow response to general call
	usart_write_str("*************OVGU TWI SLAVE RUNNING*************");TX_NEWLINE;    // string for out, to test running of UART and I2C
    2070:	88 e9       	ldi	r24, 0x98	; 152
    2072:	90 e0       	ldi	r25, 0x00	; 0
    2074:	0e 94 db 17 	call	0x2fb6	; 0x2fb6 <usart_write_str>
    2078:	85 e9       	ldi	r24, 0x95	; 149
    207a:	90 e0       	ldi	r25, 0x00	; 0
    207c:	0e 94 db 17 	call	0x2fb6	; 0x2fb6 <usart_write_str>
    2080:	2f e8       	ldi	r18, 0x8F	; 143
    2082:	80 ed       	ldi	r24, 0xD0	; 208
    2084:	93 e0       	ldi	r25, 0x03	; 3
    2086:	21 50       	subi	r18, 0x01	; 1
    2088:	80 40       	sbci	r24, 0x00	; 0
    208a:	90 40       	sbci	r25, 0x00	; 0
    208c:	e1 f7       	brne	.-8      	; 0x2086 <main+0x72>
    208e:	00 c0       	rjmp	.+0      	; 0x2090 <main+0x7c>
    2090:	00 00       	nop
unsigned char fileName[13];
unsigned int delay, k;

_delay_ms(100);  // delay for VCC stabilization

init_devices(); // init devices
    2092:	0e 94 72 0f 	call	0x1ee4	; 0x1ee4 <init_devices>

GREEN_LED_ON;  // turn on green LED to indicate power on
    2096:	d8 9a       	sbi	0x1b, 0	; 27
//blinkGREENLED();
RED_LED_OFF; 	 // keep red LED off for now
    2098:	d9 98       	cbi	0x1b, 1	; 27

// test UART
transmitString_F (PSTR("\n\r\n\r****************************************************"));
    209a:	86 e1       	ldi	r24, 0x16	; 22
    209c:	93 e0       	ldi	r25, 0x03	; 3
    209e:	0e 94 ee 17 	call	0x2fdc	; 0x2fdc <transmitString_F>
transmitString_F (PSTR("\n\r         microSD Datalogger - LENA OVGU "));
    20a2:	8f e4       	ldi	r24, 0x4F	; 79
    20a4:	93 e0       	ldi	r25, 0x03	; 3
    20a6:	0e 94 ee 17 	call	0x2fdc	; 0x2fdc <transmitString_F>
transmitString_F (PSTR("\n\r****************************************************\n\r"));
    20aa:	8a e7       	ldi	r24, 0x7A	; 122
    20ac:	93 e0       	ldi	r25, 0x03	; 3
    20ae:	0e 94 ee 17 	call	0x2fdc	; 0x2fdc <transmitString_F>

cardType = 0;
    20b2:	10 92 ab 05 	sts	0x05AB, r1
    20b6:	1a e0       	ldi	r17, 0x0A	; 10

// try to init SD card
for (i=0; i<10; i++)
{
	error = SD_init();
    20b8:	0e 94 6f 16 	call	0x2cde	; 0x2cde <SD_init>
	if(!error) break;
    20bc:	88 23       	and	r24, r24
    20be:	09 f4       	brne	.+2      	; 0x20c2 <main+0xae>
    20c0:	5b c1       	rjmp	.+694    	; 0x2378 <main+0x364>
    20c2:	11 50       	subi	r17, 0x01	; 1
transmitString_F (PSTR("\n\r****************************************************\n\r"));

cardType = 0;

// try to init SD card
for (i=0; i<10; i++)
    20c4:	c9 f7       	brne	.-14     	; 0x20b8 <main+0xa4>
    20c6:	64 c1       	rjmp	.+712    	; 0x2390 <main+0x37c>
	if(!error) break;
}

if(error)
{
	if(error == 1) transmitString_F(PSTR("SD card not detected.."));
    20c8:	83 eb       	ldi	r24, 0xB3	; 179
    20ca:	93 e0       	ldi	r25, 0x03	; 3
    20cc:	0e 94 ee 17 	call	0x2fdc	; 0x2fdc <transmitString_F>
    20d0:	06 c0       	rjmp	.+12     	; 0x20de <main+0xca>
	if(error == 2) transmitString_F(PSTR("Card Initialization failed.."));
    20d2:	82 30       	cpi	r24, 0x02	; 2
    20d4:	21 f4       	brne	.+8      	; 0x20de <main+0xca>
    20d6:	8a ec       	ldi	r24, 0xCA	; 202
    20d8:	93 e0       	ldi	r25, 0x03	; 3
    20da:	0e 94 ee 17 	call	0x2fdc	; 0x2fdc <transmitString_F>
	
	blinkRedLED();
    20de:	0e 94 7e 0f 	call	0x1efc	; 0x1efc <blinkRedLED>
}

switch (cardType)
{
	case 1:transmitString_F(PSTR("Standard Capacity Card (Ver 1.x) Detected!"));
    20e2:	87 ee       	ldi	r24, 0xE7	; 231
    20e4:	93 e0       	ldi	r25, 0x03	; 3
    20e6:	0e 94 ee 17 	call	0x2fdc	; 0x2fdc <transmitString_F>
	break;
    20ea:	0e c0       	rjmp	.+28     	; 0x2108 <main+0xf4>
	case 2:transmitString_F(PSTR("High Capacity Card Detected!"));
    20ec:	82 e1       	ldi	r24, 0x12	; 18
    20ee:	94 e0       	ldi	r25, 0x04	; 4
    20f0:	0e 94 ee 17 	call	0x2fdc	; 0x2fdc <transmitString_F>
	break;
    20f4:	09 c0       	rjmp	.+18     	; 0x2108 <main+0xf4>
	case 3:transmitString_F(PSTR("Standard Capacity Card (Ver 2.x) Detected!"));
    20f6:	8f e2       	ldi	r24, 0x2F	; 47
    20f8:	94 e0       	ldi	r25, 0x04	; 4
    20fa:	0e 94 ee 17 	call	0x2fdc	; 0x2fdc <transmitString_F>
	break;
    20fe:	04 c0       	rjmp	.+8      	; 0x2108 <main+0xf4>
	default:transmitString_F(PSTR("Unknown SD Card Detected!"));
    2100:	8a e5       	ldi	r24, 0x5A	; 90
    2102:	94 e0       	ldi	r25, 0x04	; 4
    2104:	0e 94 ee 17 	call	0x2fdc	; 0x2fdc <transmitString_F>
	break;
}

error = getBootSectorData (); //read boot sector and keep necessary data in global variables
    2108:	0e 94 16 06 	call	0xc2c	; 0xc2c <getBootSectorData>
if(error)
    210c:	88 23       	and	r24, r24
    210e:	31 f0       	breq	.+12     	; 0x211c <main+0x108>
{
	transmitString_F (PSTR("\n\rFAT32 not found!"));  //FAT32 incompatible drive
    2110:	84 e7       	ldi	r24, 0x74	; 116
    2112:	94 e0       	ldi	r25, 0x04	; 4
    2114:	0e 94 ee 17 	call	0x2fdc	; 0x2fdc <transmitString_F>
	blinkRedLED();
    2118:	0e 94 7e 0f 	call	0x1efc	; 0x1efc <blinkRedLED>
    211c:	e1 e1       	ldi	r30, 0x11	; 17
    211e:	fa e7       	ldi	r31, 0x7A	; 122
    2120:	31 97       	sbiw	r30, 0x01	; 1
    2122:	f1 f7       	brne	.-4      	; 0x2120 <main+0x10c>
    2124:	00 c0       	rjmp	.+0      	; 0x2126 <main+0x112>
    2126:	00 00       	nop

//=====================================================================

//===================================================================================================================
//PROGRAM MAIN
int main(void){
    2128:	8e 01       	movw	r16, r28
    212a:	07 5f       	subi	r16, 0xF7	; 247
    212c:	1f 4f       	sbci	r17, 0xFF	; 255
    212e:	21 2c       	mov	r2, r1
    2130:	0f 2e       	mov	r0, r31
    2132:	f7 e3       	ldi	r31, 0x37	; 55
    2134:	8f 2e       	mov	r8, r31
    2136:	f6 e0       	ldi	r31, 0x06	; 6
    2138:	9f 2e       	mov	r9, r31
    213a:	f0 2d       	mov	r31, r0
				        					fileName[9] = 'C';
				        					fileName[10] = 'S';
				        					fileName[11] = 'V';

				        					error = GetTime(); //get time
				        					if(error) blinkRedLED();
    213c:	c1 2c       	mov	r12, r1
    213e:	d1 2c       	mov	r13, r1
				        					//dataString is declared in FAT32.h
				        					//make sure dataString doesn't exceed its MAX_STRING_SIZE, defined in FAT32.h
				        					//Also, end the data string with '\r' & '\n' characters to maintain CSV format

				        					for(i=0; i<10; i++) dataString[i] = date[i];
				        					dataString[i++] = ';';
    2140:	0f 2e       	mov	r0, r31
    2142:	f1 e5       	ldi	r31, 0x51	; 81
    2144:	4f 2e       	mov	r4, r31
    2146:	f5 e0       	ldi	r31, 0x05	; 5
    2148:	5f 2e       	mov	r5, r31
    214a:	f0 2d       	mov	r31, r0
    214c:	0f 2e       	mov	r0, r31
    214e:	fb e3       	ldi	r31, 0x3B	; 59
    2150:	3f 2e       	mov	r3, r31
    2152:	f0 2d       	mov	r31, r0
    2154:	0f 2e       	mov	r0, r31
    2156:	fa e2       	ldi	r31, 0x2A	; 42
    2158:	af 2e       	mov	r10, r31
    215a:	f6 e0       	ldi	r31, 0x06	; 6
    215c:	bf 2e       	mov	r11, r31
    215e:	f0 2d       	mov	r31, r0
    2160:	0f 2e       	mov	r0, r31
    2162:	fb e0       	ldi	r31, 0x0B	; 11
    2164:	6f 2e       	mov	r6, r31
    2166:	71 2c       	mov	r7, r1
    2168:	f0 2d       	mov	r31, r0
_delay_ms(10);		//some delay for settling new spi speed


			        while(1)
			        {
				        					RED_LED_ON;  //turn on red LED to indicate that recording has started
    216a:	d9 9a       	sbi	0x1b, 1	; 27
				        					
				        					error = GetDate(); //get date
    216c:	0e 94 ac 0f 	call	0x1f58	; 0x1f58 <GetDate>
				        					if(error) blinkRedLED();
    2170:	81 11       	cpse	r24, r1
    2172:	0e 94 7e 0f 	call	0x1efc	; 0x1efc <blinkRedLED>
    2176:	fe 01       	movw	r30, r28
    2178:	31 96       	adiw	r30, 0x01	; 1

//=====================================================================

//===================================================================================================================
//PROGRAM MAIN
int main(void){
    217a:	82 2d       	mov	r24, r2

				        					j=0;
				        					//create filename from date
				        					for(i=0; i<8; i++)
				        					{
					        					fileName[i] = date[j++];
    217c:	a8 2f       	mov	r26, r24
    217e:	b0 e0       	ldi	r27, 0x00	; 0
    2180:	a9 5c       	subi	r26, 0xC9	; 201
    2182:	b9 4f       	sbci	r27, 0xF9	; 249
    2184:	9c 91       	ld	r25, X
    2186:	91 93       	st	Z+, r25
    2188:	98 2f       	mov	r25, r24
    218a:	9f 5f       	subi	r25, 0xFF	; 255
					        					if(j==2 || j==5) j++;	//excluding the '/' character from date in the fileName
    218c:	92 30       	cpi	r25, 0x02	; 2
    218e:	11 f0       	breq	.+4      	; 0x2194 <main+0x180>
    2190:	95 30       	cpi	r25, 0x05	; 5
    2192:	11 f4       	brne	.+4      	; 0x2198 <main+0x184>
    2194:	8e 5f       	subi	r24, 0xFE	; 254
    2196:	01 c0       	rjmp	.+2      	; 0x219a <main+0x186>

				        					j=0;
				        					//create filename from date
				        					for(i=0; i<8; i++)
				        					{
					        					fileName[i] = date[j++];
    2198:	89 2f       	mov	r24, r25
				        					error = GetDate(); //get date
				        					if(error) blinkRedLED();

				        					j=0;
				        					//create filename from date
				        					for(i=0; i<8; i++)
    219a:	e0 17       	cp	r30, r16
    219c:	f1 07       	cpc	r31, r17
    219e:	71 f7       	brne	.-36     	; 0x217c <main+0x168>
				        					{
					        					fileName[i] = date[j++];
					        					if(j==2 || j==5) j++;	//excluding the '/' character from date in the fileName
				        					}
				        					//extension
				        					fileName[8] = '.';
    21a0:	fe e2       	ldi	r31, 0x2E	; 46
    21a2:	f9 87       	std	Y+9, r31	; 0x09
				        					fileName[9] = 'C';
    21a4:	23 e4       	ldi	r18, 0x43	; 67
    21a6:	2a 87       	std	Y+10, r18	; 0x0a
				        					fileName[10] = 'S';
    21a8:	83 e5       	ldi	r24, 0x53	; 83
    21aa:	8b 87       	std	Y+11, r24	; 0x0b
				        					fileName[11] = 'V';
    21ac:	96 e5       	ldi	r25, 0x56	; 86
    21ae:	9c 87       	std	Y+12, r25	; 0x0c

				        					error = GetTime(); //get time
    21b0:	0e 94 93 0f 	call	0x1f26	; 0x1f26 <GetTime>
				        					if(error) blinkRedLED();
    21b4:	81 11       	cpse	r24, r1
    21b6:	0e 94 7e 0f 	call	0x1efc	; 0x1efc <blinkRedLED>
    21ba:	f4 01       	movw	r30, r8
    21bc:	c6 01       	movw	r24, r12
				        					//From here onwards, gather data by appending strings in dataString
				        					//dataString is declared in FAT32.h
				        					//make sure dataString doesn't exceed its MAX_STRING_SIZE, defined in FAT32.h
				        					//Also, end the data string with '\r' & '\n' characters to maintain CSV format

				        					for(i=0; i<10; i++) dataString[i] = date[i];
    21be:	21 91       	ld	r18, Z+
    21c0:	dc 01       	movw	r26, r24
    21c2:	a9 5b       	subi	r26, 0xB9	; 185
    21c4:	ba 4f       	sbci	r27, 0xFA	; 250
    21c6:	2c 93       	st	X, r18
    21c8:	01 96       	adiw	r24, 0x01	; 1
    21ca:	8a 30       	cpi	r24, 0x0A	; 10
    21cc:	91 05       	cpc	r25, r1
    21ce:	b9 f7       	brne	.-18     	; 0x21be <main+0x1aa>
				        					dataString[i++] = ';';
    21d0:	f2 01       	movw	r30, r4
    21d2:	30 82       	st	Z, r3
    21d4:	f5 01       	movw	r30, r10
    21d6:	c3 01       	movw	r24, r6

				        					for(j=0;j<8; j++)  dataString[i++] = time[j];
    21d8:	21 91       	ld	r18, Z+
    21da:	dc 01       	movw	r26, r24
    21dc:	a9 5b       	subi	r26, 0xB9	; 185
    21de:	ba 4f       	sbci	r27, 0xFA	; 250
    21e0:	2c 93       	st	X, r18
    21e2:	01 96       	adiw	r24, 0x01	; 1
    21e4:	83 31       	cpi	r24, 0x13	; 19
    21e6:	91 05       	cpc	r25, r1
    21e8:	b9 f7       	brne	.-18     	; 0x21d8 <main+0x1c4>
				        					dataString[i++] = ';';
    21ea:	30 92 5a 05 	sts	0x055A, r3
				        					
				        					GetTemperature(); //read temperature
    21ee:	0e 94 ca 0f 	call	0x1f94	; 0x1f94 <GetTemperature>
    21f2:	e3 ed       	ldi	r30, 0xD3	; 211
    21f4:	f5 e0       	ldi	r31, 0x05	; 5
    21f6:	84 e1       	ldi	r24, 0x14	; 20
    21f8:	90 e0       	ldi	r25, 0x00	; 0
				        					for(j=0;j<7; j++)  dataString[i++] = temperature[j];
    21fa:	21 91       	ld	r18, Z+
    21fc:	dc 01       	movw	r26, r24
    21fe:	a9 5b       	subi	r26, 0xB9	; 185
    2200:	ba 4f       	sbci	r27, 0xFA	; 250
    2202:	2c 93       	st	X, r18
    2204:	01 96       	adiw	r24, 0x01	; 1
    2206:	8b 31       	cpi	r24, 0x1B	; 27
    2208:	91 05       	cpc	r25, r1
    220a:	b9 f7       	brne	.-18     	; 0x21fa <main+0x1e6>
				        					dataString[i++] = '\r';	//always end the string with these two characters,
    220c:	8d e0       	ldi	r24, 0x0D	; 13
    220e:	80 93 62 05 	sts	0x0562, r24
				        					dataString[i] = '\n';	//before calling the writeFile function
    2212:	8a e0       	ldi	r24, 0x0A	; 10
    2214:	80 93 63 05 	sts	0x0563, r24
				        					
											Getvoltage2();
    2218:	0e 94 df 0f 	call	0x1fbe	; 0x1fbe <Getvoltage2>
    221c:	e0 e2       	ldi	r30, 0x20	; 32
    221e:	f6 e0       	ldi	r31, 0x06	; 6
    2220:	8c e1       	ldi	r24, 0x1C	; 28
    2222:	90 e0       	ldi	r25, 0x00	; 0
											for(j=0;j<7; j++)  dataString[i++] = voltage2[j];
    2224:	21 91       	ld	r18, Z+
    2226:	dc 01       	movw	r26, r24
    2228:	a9 5b       	subi	r26, 0xB9	; 185
    222a:	ba 4f       	sbci	r27, 0xFA	; 250
    222c:	2c 93       	st	X, r18
    222e:	01 96       	adiw	r24, 0x01	; 1
    2230:	83 32       	cpi	r24, 0x23	; 35
    2232:	91 05       	cpc	r25, r1
    2234:	b9 f7       	brne	.-18     	; 0x2224 <main+0x210>
											dataString[i++] = '\r';	//always end the string with these two characters,
    2236:	8d e0       	ldi	r24, 0x0D	; 13
    2238:	80 93 6a 05 	sts	0x056A, r24
											dataString[i] = '\n';	//before calling the writeFile function
    223c:	8a e0       	ldi	r24, 0x0A	; 10
    223e:	80 93 6b 05 	sts	0x056B, r24
																				
											Getcurrent2();
    2242:	0e 94 f4 0f 	call	0x1fe8	; 0x1fe8 <Getcurrent2>
    2246:	e6 ec       	ldi	r30, 0xC6	; 198
    2248:	f5 e0       	ldi	r31, 0x05	; 5
    224a:	84 e2       	ldi	r24, 0x24	; 36
    224c:	90 e0       	ldi	r25, 0x00	; 0
											for(j=0;j<7; j++)  dataString[i++] = current2[j];
    224e:	21 91       	ld	r18, Z+
    2250:	dc 01       	movw	r26, r24
    2252:	a9 5b       	subi	r26, 0xB9	; 185
    2254:	ba 4f       	sbci	r27, 0xFA	; 250
    2256:	2c 93       	st	X, r18
    2258:	01 96       	adiw	r24, 0x01	; 1
    225a:	8b 32       	cpi	r24, 0x2B	; 43
    225c:	91 05       	cpc	r25, r1
    225e:	b9 f7       	brne	.-18     	; 0x224e <main+0x23a>
											
											dataString[i++] = '\r';	//always end the string with these two characters,
    2260:	8d e0       	ldi	r24, 0x0D	; 13
    2262:	80 93 72 05 	sts	0x0572, r24
											dataString[i] = '\n';	//before calling the writeFile function
    2266:	8a e0       	ldi	r24, 0x0A	; 10
    2268:	80 93 73 05 	sts	0x0573, r24
											
																				
											error = writeFile(fileName); // write to file in SD card
    226c:	ce 01       	movw	r24, r28
    226e:	01 96       	adiw	r24, 0x01	; 1
    2270:	0e 94 ff 0b 	call	0x17fe	; 0x17fe <writeFile>
    2274:	f8 2e       	mov	r15, r24
				        					usart_write_str (dataString); // write to UART
    2276:	87 e4       	ldi	r24, 0x47	; 71
    2278:	95 e0       	ldi	r25, 0x05	; 5
    227a:	0e 94 db 17 	call	0x2fb6	; 0x2fb6 <usart_write_str>
				        					if(error) blinkRedLED();
    227e:	f1 10       	cpse	r15, r1
    2280:	0e 94 7e 0f 	call	0x1efc	; 0x1efc <blinkRedLED>
    2284:	84 e6       	ldi	r24, 0x64	; 100
    2286:	90 e0       	ldi	r25, 0x00	; 0
    2288:	e1 e1       	ldi	r30, 0x11	; 17
    228a:	fa e7       	ldi	r31, 0x7A	; 122
    228c:	31 97       	sbiw	r30, 0x01	; 1
    228e:	f1 f7       	brne	.-4      	; 0x228c <main+0x278>
    2290:	00 c0       	rjmp	.+0      	; 0x2292 <main+0x27e>
    2292:	00 00       	nop
				        					delay = INTERVAL / 10;
				        					for(k=0; k<delay; k++)
				        					{
					        					_delay_ms(10);  //10ms delay in each loop
					        					
					        					RED_LED_OFF;  //turn off red LED to indicate that recording has stopped
    2294:	d9 98       	cbi	0x1b, 1	; 27
    2296:	01 97       	sbiw	r24, 0x01	; 1
											error = writeFile(fileName); // write to file in SD card
				        					usart_write_str (dataString); // write to UART
				        					if(error) blinkRedLED();

				        					delay = INTERVAL / 10;
				        					for(k=0; k<delay; k++)
    2298:	b9 f7       	brne	.-18     	; 0x2288 <main+0x274>
						
						while (1)
						{
									
		 // read packet, handle ping and wait for a tcp packet:
		 dat_p=packetloop_arp_icmp_tcp(buf,enc28j60PacketReceive(BUFFER_SIZE, buf));
    229a:	65 ed       	ldi	r22, 0xD5	; 213
    229c:	70 e0       	ldi	r23, 0x00	; 0
    229e:	86 e2       	ldi	r24, 0x26	; 38
    22a0:	92 e0       	ldi	r25, 0x02	; 2
    22a2:	0e 94 49 04 	call	0x892	; 0x892 <enc28j60PacketReceive>
    22a6:	bc 01       	movw	r22, r24
    22a8:	85 ed       	ldi	r24, 0xD5	; 213
    22aa:	90 e0       	ldi	r25, 0x00	; 0
    22ac:	0e 94 0d 15 	call	0x2a1a	; 0x2a1a <packetloop_arp_icmp_tcp>
    22b0:	7c 01       	movw	r14, r24
    22b2:	90 93 29 06 	sts	0x0629, r25
    22b6:	80 93 28 06 	sts	0x0628, r24
		 // dat_p will be unequal to zero if there is a valid  http get
		 if(dat_p==0){
    22ba:	00 97       	sbiw	r24, 0x00	; 0
    22bc:	41 f4       	brne	.+16     	; 0x22ce <main+0x2ba>
			 // no http request
			 if (enc28j60linkup()){
    22be:	0e 94 fd 03 	call	0x7fa	; 0x7fa <enc28j60linkup>
    22c2:	88 23       	and	r24, r24
    22c4:	11 f0       	breq	.+4      	; 0x22ca <main+0x2b6>
				 LEDON;
    22c6:	c1 98       	cbi	0x18, 1	; 24
    22c8:	e8 cf       	rjmp	.-48     	; 0x229a <main+0x286>
				 }else{
				 LEDOFF;
    22ca:	c1 9a       	sbi	0x18, 1	; 24
    22cc:	e6 cf       	rjmp	.-52     	; 0x229a <main+0x286>
			 }
			 continue;
		 }
		 // tcp port 80 begin
		 if (strncmp("GET ",(char *)&(buf[dat_p]),4)!=0){
    22ce:	bc 01       	movw	r22, r24
    22d0:	6b 52       	subi	r22, 0x2B	; 43
    22d2:	7f 4f       	sbci	r23, 0xFF	; 255
    22d4:	44 e0       	ldi	r20, 0x04	; 4
    22d6:	50 e0       	ldi	r21, 0x00	; 0
    22d8:	89 ec       	ldi	r24, 0xC9	; 201
    22da:	90 e0       	ldi	r25, 0x00	; 0
    22dc:	0e 94 67 18 	call	0x30ce	; 0x30ce <strncmp>
    22e0:	28 2f       	mov	r18, r24
    22e2:	39 2f       	mov	r19, r25
    22e4:	23 2b       	or	r18, r19
    22e6:	91 f0       	breq	.+36     	; 0x230c <main+0x2f8>
			 // head, post and other methods:
			 dat_p=http200ok();
    22e8:	0e 94 1d 0f 	call	0x1e3a	; 0x1e3a <http200ok>
    22ec:	90 93 29 06 	sts	0x0629, r25
    22f0:	80 93 28 06 	sts	0x0628, r24
			
			 dat_p=fill_tcp_data_p(buf,dat_p,PSTR("<h1>200 OK</h1>"));
    22f4:	47 e8       	ldi	r20, 0x87	; 135
    22f6:	54 e0       	ldi	r21, 0x04	; 4
    22f8:	bc 01       	movw	r22, r24
    22fa:	85 ed       	ldi	r24, 0xD5	; 213
    22fc:	90 e0       	ldi	r25, 0x00	; 0
    22fe:	0e 94 73 13 	call	0x26e6	; 0x26e6 <fill_tcp_data_p>
    2302:	90 93 29 06 	sts	0x0629, r25
    2306:	80 93 28 06 	sts	0x0628, r24
			 goto SENDTCP;
    230a:	21 c0       	rjmp	.+66     	; 0x234e <main+0x33a>
		 
		 
		 
		 
		 // just one web page in the "root directory" of the web server
		 if (strncmp("/ ",(char *)&(buf[dat_p+4]),2)==0){
    230c:	b7 01       	movw	r22, r14
    230e:	67 52       	subi	r22, 0x27	; 39
    2310:	7f 4f       	sbci	r23, 0xFF	; 255
    2312:	42 e0       	ldi	r20, 0x02	; 2
    2314:	50 e0       	ldi	r21, 0x00	; 0
    2316:	8e ec       	ldi	r24, 0xCE	; 206
    2318:	90 e0       	ldi	r25, 0x00	; 0
    231a:	0e 94 67 18 	call	0x30ce	; 0x30ce <strncmp>
    231e:	28 2f       	mov	r18, r24
    2320:	39 2f       	mov	r19, r25
    2322:	23 2b       	or	r18, r19
    2324:	49 f4       	brne	.+18     	; 0x2338 <main+0x324>




			 dat_p=print_webpage(buf);
    2326:	85 ed       	ldi	r24, 0xD5	; 213
    2328:	90 e0       	ldi	r25, 0x00	; 0
    232a:	0e 94 26 0f 	call	0x1e4c	; 0x1e4c <print_webpage>
    232e:	90 93 29 06 	sts	0x0629, r25
    2332:	80 93 28 06 	sts	0x0628, r24
			 goto SENDTCP;
    2336:	0b c0       	rjmp	.+22     	; 0x234e <main+0x33a>
			 }else{
			 dat_p=fill_tcp_data_p(buf,0,PSTR("HTTP/1.0 401 Unauthorized\r\nContent-Type: text/html\r\n\r\n<h1>401 Unauthorized</h1>"));
    2338:	47 e9       	ldi	r20, 0x97	; 151
    233a:	54 e0       	ldi	r21, 0x04	; 4
    233c:	b6 01       	movw	r22, r12
    233e:	85 ed       	ldi	r24, 0xD5	; 213
    2340:	90 e0       	ldi	r25, 0x00	; 0
    2342:	0e 94 73 13 	call	0x26e6	; 0x26e6 <fill_tcp_data_p>
    2346:	90 93 29 06 	sts	0x0629, r25
    234a:	80 93 28 06 	sts	0x0628, r24
						}
						
				        
				       
				        SENDTCP:
				        www_server_reply(buf,dat_p); // send web page data
    234e:	60 91 28 06 	lds	r22, 0x0628
    2352:	70 91 29 06 	lds	r23, 0x0629
    2356:	85 ed       	ldi	r24, 0xD5	; 213
    2358:	90 e0       	ldi	r25, 0x00	; 0
    235a:	0e 94 89 14 	call	0x2912	; 0x2912 <www_server_reply>
				        // tcp port 80 end
						make_tcp_ack_from_any(buf);
    235e:	85 ed       	ldi	r24, 0xD5	; 213
    2360:	90 e0       	ldi	r25, 0x00	; 0
    2362:	0e 94 b4 13 	call	0x2768	; 0x2768 <make_tcp_ack_from_any>
						make_tcp_ack_with_data(buf,plen);
    2366:	60 91 13 06 	lds	r22, 0x0613
    236a:	70 91 14 06 	lds	r23, 0x0614
    236e:	85 ed       	ldi	r24, 0xD5	; 213
    2370:	90 e0       	ldi	r25, 0x00	; 0
    2372:	0e 94 14 14 	call	0x2828	; 0x2828 <make_tcp_ack_with_data>
						
	//2nd while for SD CARD

						
						
			        }
    2376:	f9 ce       	rjmp	.-526    	; 0x216a <main+0x156>
	if(error == 2) transmitString_F(PSTR("Card Initialization failed.."));
	
	blinkRedLED();
}

switch (cardType)
    2378:	80 91 ab 05 	lds	r24, 0x05AB
    237c:	82 30       	cpi	r24, 0x02	; 2
    237e:	09 f4       	brne	.+2      	; 0x2382 <main+0x36e>
    2380:	b5 ce       	rjmp	.-662    	; 0x20ec <main+0xd8>
    2382:	83 30       	cpi	r24, 0x03	; 3
    2384:	09 f4       	brne	.+2      	; 0x2388 <main+0x374>
    2386:	b7 ce       	rjmp	.-658    	; 0x20f6 <main+0xe2>
    2388:	81 30       	cpi	r24, 0x01	; 1
    238a:	09 f0       	breq	.+2      	; 0x238e <main+0x37a>
    238c:	b9 ce       	rjmp	.-654    	; 0x2100 <main+0xec>
    238e:	a9 ce       	rjmp	.-686    	; 0x20e2 <main+0xce>
	if(!error) break;
}

if(error)
{
	if(error == 1) transmitString_F(PSTR("SD card not detected.."));
    2390:	81 30       	cpi	r24, 0x01	; 1
    2392:	09 f0       	breq	.+2      	; 0x2396 <main+0x382>
    2394:	9e ce       	rjmp	.-708    	; 0x20d2 <main+0xbe>
    2396:	98 ce       	rjmp	.-720    	; 0x20c8 <main+0xb4>

00002398 <checksum>:
//
// For more information on how this algorithm works see:
// http://www.netfor2.com/checksum.html
// http://www.msc.uky.edu/ken/cs471/notes/chap3.htm
// The RFC has also a C code example: http://www.faqs.org/rfcs/rfc1071.html
uint16_t checksum(uint8_t *buf, uint16_t len,uint8_t type){
    2398:	ff 92       	push	r15
    239a:	0f 93       	push	r16
    239c:	1f 93       	push	r17
    239e:	cf 93       	push	r28
    23a0:	df 93       	push	r29
    23a2:	eb 01       	movw	r28, r22

        //if(type==0){    
        //        // do not add anything, standard IP checksum as described above
        //        // Usable for ICMP and IP header
        //}
        if(type==1){
    23a4:	41 30       	cpi	r20, 0x01	; 1
    23a6:	51 f4       	brne	.+20     	; 0x23bc <checksum+0x24>
                sum+=IP_PROTO_UDP_V; // protocol udp
                // the length here is the length of udp (data+header len)
                // =length given to this function - (IP.scr+IP.dst length)
                sum+=len-8; // = real udp len
    23a8:	ab 01       	movw	r20, r22
    23aa:	48 50       	subi	r20, 0x08	; 8
    23ac:	51 09       	sbc	r21, r1
    23ae:	60 e0       	ldi	r22, 0x00	; 0
    23b0:	70 e0       	ldi	r23, 0x00	; 0
    23b2:	4f 5e       	subi	r20, 0xEF	; 239
    23b4:	5f 4f       	sbci	r21, 0xFF	; 255
    23b6:	6f 4f       	sbci	r22, 0xFF	; 255
    23b8:	7f 4f       	sbci	r23, 0xFF	; 255
    23ba:	0f c0       	rjmp	.+30     	; 0x23da <checksum+0x42>
        }
        if(type==2){
    23bc:	42 30       	cpi	r20, 0x02	; 2
    23be:	51 f4       	brne	.+20     	; 0x23d4 <checksum+0x3c>
                sum+=IP_PROTO_TCP_V; 
                // the length here is the length of tcp (data+header len)
                // =length given to this function - (IP.scr+IP.dst length)
                sum+=len-8; // = real tcp len
    23c0:	ab 01       	movw	r20, r22
    23c2:	48 50       	subi	r20, 0x08	; 8
    23c4:	51 09       	sbc	r21, r1
    23c6:	60 e0       	ldi	r22, 0x00	; 0
    23c8:	70 e0       	ldi	r23, 0x00	; 0
    23ca:	4a 5f       	subi	r20, 0xFA	; 250
    23cc:	5f 4f       	sbci	r21, 0xFF	; 255
    23ce:	6f 4f       	sbci	r22, 0xFF	; 255
    23d0:	7f 4f       	sbci	r23, 0xFF	; 255
    23d2:	03 c0       	rjmp	.+6      	; 0x23da <checksum+0x42>
// The RFC has also a C code example: http://www.faqs.org/rfcs/rfc1071.html
uint16_t checksum(uint8_t *buf, uint16_t len,uint8_t type){
        // type 0=ip , icmp
        //      1=udp
        //      2=tcp
        uint32_t sum = 0;
    23d4:	40 e0       	ldi	r20, 0x00	; 0
    23d6:	50 e0       	ldi	r21, 0x00	; 0
    23d8:	ba 01       	movw	r22, r20
                // the length here is the length of tcp (data+header len)
                // =length given to this function - (IP.scr+IP.dst length)
                sum+=len-8; // = real tcp len
        }
        // build the sum of 16bit words
        while(len >1){
    23da:	c2 30       	cpi	r28, 0x02	; 2
    23dc:	d1 05       	cpc	r29, r1
    23de:	f8 f0       	brcs	.+62     	; 0x241e <checksum+0x86>
    23e0:	de 01       	movw	r26, r28
    23e2:	fc 01       	movw	r30, r24
                sum += 0xFFFF & (((uint32_t)*buf<<8)|*(buf+1));
    23e4:	00 81       	ld	r16, Z
    23e6:	10 e0       	ldi	r17, 0x00	; 0
    23e8:	20 e0       	ldi	r18, 0x00	; 0
    23ea:	30 e0       	ldi	r19, 0x00	; 0
    23ec:	32 2f       	mov	r19, r18
    23ee:	21 2f       	mov	r18, r17
    23f0:	10 2f       	mov	r17, r16
    23f2:	00 27       	eor	r16, r16
    23f4:	f1 80       	ldd	r15, Z+1	; 0x01
    23f6:	0f 29       	or	r16, r15
    23f8:	40 0f       	add	r20, r16
    23fa:	51 1f       	adc	r21, r17
    23fc:	62 1f       	adc	r22, r18
    23fe:	73 1f       	adc	r23, r19
                buf+=2;
    2400:	32 96       	adiw	r30, 0x02	; 2
                len-=2;
    2402:	12 97       	sbiw	r26, 0x02	; 2
                // the length here is the length of tcp (data+header len)
                // =length given to this function - (IP.scr+IP.dst length)
                sum+=len-8; // = real tcp len
        }
        // build the sum of 16bit words
        while(len >1){
    2404:	a2 30       	cpi	r26, 0x02	; 2
    2406:	b1 05       	cpc	r27, r1
    2408:	68 f7       	brcc	.-38     	; 0x23e4 <checksum+0x4c>
//
// For more information on how this algorithm works see:
// http://www.netfor2.com/checksum.html
// http://www.msc.uky.edu/ken/cs471/notes/chap3.htm
// The RFC has also a C code example: http://www.faqs.org/rfcs/rfc1071.html
uint16_t checksum(uint8_t *buf, uint16_t len,uint8_t type){
    240a:	9e 01       	movw	r18, r28
    240c:	22 50       	subi	r18, 0x02	; 2
    240e:	31 09       	sbc	r19, r1
    2410:	2e 7f       	andi	r18, 0xFE	; 254
    2412:	2e 5f       	subi	r18, 0xFE	; 254
    2414:	3f 4f       	sbci	r19, 0xFF	; 255
    2416:	82 0f       	add	r24, r18
    2418:	93 1f       	adc	r25, r19
    241a:	c1 70       	andi	r28, 0x01	; 1
    241c:	dd 27       	eor	r29, r29
                sum += 0xFFFF & (((uint32_t)*buf<<8)|*(buf+1));
                buf+=2;
                len-=2;
        }
        // if there is a byte left then add it (padded with zero)
        if (len){
    241e:	cd 2b       	or	r28, r29
    2420:	69 f0       	breq	.+26     	; 0x243c <checksum+0xa4>
                sum += ((uint32_t)(0xFF & *buf))<<8;
    2422:	fc 01       	movw	r30, r24
    2424:	80 81       	ld	r24, Z
    2426:	90 e0       	ldi	r25, 0x00	; 0
    2428:	a0 e0       	ldi	r26, 0x00	; 0
    242a:	b0 e0       	ldi	r27, 0x00	; 0
    242c:	ba 2f       	mov	r27, r26
    242e:	a9 2f       	mov	r26, r25
    2430:	98 2f       	mov	r25, r24
    2432:	88 27       	eor	r24, r24
    2434:	48 0f       	add	r20, r24
    2436:	59 1f       	adc	r21, r25
    2438:	6a 1f       	adc	r22, r26
    243a:	7b 1f       	adc	r23, r27
        }
        // now calculate the sum over the bytes in the sum
        // until the result is only 16bit long
        while (sum>>16){
    243c:	cb 01       	movw	r24, r22
    243e:	aa 27       	eor	r26, r26
    2440:	bb 27       	eor	r27, r27
    2442:	00 97       	sbiw	r24, 0x00	; 0
    2444:	a1 05       	cpc	r26, r1
    2446:	b1 05       	cpc	r27, r1
    2448:	69 f0       	breq	.+26     	; 0x2464 <checksum+0xcc>
                sum = (sum & 0xFFFF)+(sum >> 16);
    244a:	66 27       	eor	r22, r22
    244c:	77 27       	eor	r23, r23
    244e:	48 0f       	add	r20, r24
    2450:	59 1f       	adc	r21, r25
    2452:	6a 1f       	adc	r22, r26
    2454:	7b 1f       	adc	r23, r27
        if (len){
                sum += ((uint32_t)(0xFF & *buf))<<8;
        }
        // now calculate the sum over the bytes in the sum
        // until the result is only 16bit long
        while (sum>>16){
    2456:	cb 01       	movw	r24, r22
    2458:	aa 27       	eor	r26, r26
    245a:	bb 27       	eor	r27, r27
    245c:	00 97       	sbiw	r24, 0x00	; 0
    245e:	a1 05       	cpc	r26, r1
    2460:	b1 05       	cpc	r27, r1
    2462:	99 f7       	brne	.-26     	; 0x244a <checksum+0xb2>
                sum = (sum & 0xFFFF)+(sum >> 16);
        }
        // build 1's complement:
        return( (uint16_t) sum ^ 0xFFFF);
    2464:	40 95       	com	r20
    2466:	50 95       	com	r21
}
    2468:	84 2f       	mov	r24, r20
    246a:	95 2f       	mov	r25, r21
    246c:	df 91       	pop	r29
    246e:	cf 91       	pop	r28
    2470:	1f 91       	pop	r17
    2472:	0f 91       	pop	r16
    2474:	ff 90       	pop	r15
    2476:	08 95       	ret

00002478 <init_mac>:

void init_mac(uint8_t *mymac){
        if (mymac){
    2478:	00 97       	sbiw	r24, 0x00	; 0
    247a:	41 f0       	breq	.+16     	; 0x248c <init_mac+0x14>
                memcpy(macaddr,mymac,6);
    247c:	26 e0       	ldi	r18, 0x06	; 6
    247e:	fc 01       	movw	r30, r24
    2480:	ac ef       	ldi	r26, 0xFC	; 252
    2482:	b2 e0       	ldi	r27, 0x02	; 2
    2484:	01 90       	ld	r0, Z+
    2486:	0d 92       	st	X+, r0
    2488:	2a 95       	dec	r18
    248a:	e1 f7       	brne	.-8      	; 0x2484 <init_mac+0xc>
    248c:	08 95       	ret

0000248e <eth_type_is_arp_and_my_ip>:
                i++;
        }
        return(1);
}

uint8_t eth_type_is_arp_and_my_ip(uint8_t *buf,uint16_t len){
    248e:	fc 01       	movw	r30, r24
        uint8_t i=0;
        //  
        if (len<41){
    2490:	69 32       	cpi	r22, 0x29	; 41
    2492:	71 05       	cpc	r23, r1
    2494:	e8 f0       	brcs	.+58     	; 0x24d0 <eth_type_is_arp_and_my_ip+0x42>
                return(0);
        }
        if(buf[ETH_TYPE_H_P] != ETHTYPE_ARP_H_V || 
    2496:	84 85       	ldd	r24, Z+12	; 0x0c
    2498:	88 30       	cpi	r24, 0x08	; 8
    249a:	e1 f4       	brne	.+56     	; 0x24d4 <eth_type_is_arp_and_my_ip+0x46>
    249c:	85 85       	ldd	r24, Z+13	; 0x0d
    249e:	86 30       	cpi	r24, 0x06	; 6
    24a0:	d9 f4       	brne	.+54     	; 0x24d8 <eth_type_is_arp_and_my_ip+0x4a>
           buf[ETH_TYPE_L_P] != ETHTYPE_ARP_L_V){
                return(0);
        }
        while(i<4){
                if(buf[ETH_ARP_DST_IP_P+i] != ipaddr[i]){
    24a2:	96 a1       	ldd	r25, Z+38	; 0x26
    24a4:	80 91 02 03 	lds	r24, 0x0302
    24a8:	98 13       	cpse	r25, r24
    24aa:	18 c0       	rjmp	.+48     	; 0x24dc <eth_type_is_arp_and_my_ip+0x4e>
    24ac:	97 a1       	ldd	r25, Z+39	; 0x27
    24ae:	80 91 03 03 	lds	r24, 0x0303
    24b2:	98 13       	cpse	r25, r24
    24b4:	15 c0       	rjmp	.+42     	; 0x24e0 <eth_type_is_arp_and_my_ip+0x52>
    24b6:	90 a5       	ldd	r25, Z+40	; 0x28
    24b8:	80 91 04 03 	lds	r24, 0x0304
    24bc:	98 13       	cpse	r25, r24
    24be:	12 c0       	rjmp	.+36     	; 0x24e4 <eth_type_is_arp_and_my_ip+0x56>
    24c0:	81 e0       	ldi	r24, 0x01	; 1
    24c2:	21 a5       	ldd	r18, Z+41	; 0x29
    24c4:	90 91 05 03 	lds	r25, 0x0305
    24c8:	29 17       	cp	r18, r25
    24ca:	69 f0       	breq	.+26     	; 0x24e6 <eth_type_is_arp_and_my_ip+0x58>
    24cc:	80 e0       	ldi	r24, 0x00	; 0
    24ce:	08 95       	ret

uint8_t eth_type_is_arp_and_my_ip(uint8_t *buf,uint16_t len){
        uint8_t i=0;
        //  
        if (len<41){
                return(0);
    24d0:	80 e0       	ldi	r24, 0x00	; 0
    24d2:	08 95       	ret
        }
        if(buf[ETH_TYPE_H_P] != ETHTYPE_ARP_H_V || 
           buf[ETH_TYPE_L_P] != ETHTYPE_ARP_L_V){
                return(0);
    24d4:	80 e0       	ldi	r24, 0x00	; 0
    24d6:	08 95       	ret
    24d8:	80 e0       	ldi	r24, 0x00	; 0
    24da:	08 95       	ret
        }
        while(i<4){
                if(buf[ETH_ARP_DST_IP_P+i] != ipaddr[i]){
                        return(0);
    24dc:	80 e0       	ldi	r24, 0x00	; 0
    24de:	08 95       	ret
    24e0:	80 e0       	ldi	r24, 0x00	; 0
    24e2:	08 95       	ret
    24e4:	80 e0       	ldi	r24, 0x00	; 0
                }
                i++;
        }
        return(1);
}
    24e6:	08 95       	ret

000024e8 <eth_type_is_ip_and_my_ip>:

uint8_t eth_type_is_ip_and_my_ip(uint8_t *buf,uint16_t len){
    24e8:	fc 01       	movw	r30, r24
        uint8_t i=0;
        //eth+ip+udp header is 42
        if (len<42){
    24ea:	6a 32       	cpi	r22, 0x2A	; 42
    24ec:	71 05       	cpc	r23, r1
    24ee:	00 f1       	brcs	.+64     	; 0x2530 <eth_type_is_ip_and_my_ip+0x48>
                return(0);
        }
        if(buf[ETH_TYPE_H_P]!=ETHTYPE_IP_H_V || 
    24f0:	84 85       	ldd	r24, Z+12	; 0x0c
    24f2:	88 30       	cpi	r24, 0x08	; 8
    24f4:	f9 f4       	brne	.+62     	; 0x2534 <eth_type_is_ip_and_my_ip+0x4c>
    24f6:	85 85       	ldd	r24, Z+13	; 0x0d
    24f8:	81 11       	cpse	r24, r1
    24fa:	1e c0       	rjmp	.+60     	; 0x2538 <eth_type_is_ip_and_my_ip+0x50>
           buf[ETH_TYPE_L_P]!=ETHTYPE_IP_L_V){
                return(0);
        }
        if (buf[IP_HEADER_LEN_VER_P]!=0x45){
    24fc:	86 85       	ldd	r24, Z+14	; 0x0e
    24fe:	85 34       	cpi	r24, 0x45	; 69
    2500:	e9 f4       	brne	.+58     	; 0x253c <eth_type_is_ip_and_my_ip+0x54>
                // must be IP V4 and 20 byte header
                return(0);
        }
        while(i<4){
                if(buf[IP_DST_P+i]!=ipaddr[i]){
    2502:	96 8d       	ldd	r25, Z+30	; 0x1e
    2504:	80 91 02 03 	lds	r24, 0x0302
    2508:	98 13       	cpse	r25, r24
    250a:	1a c0       	rjmp	.+52     	; 0x2540 <eth_type_is_ip_and_my_ip+0x58>
    250c:	97 8d       	ldd	r25, Z+31	; 0x1f
    250e:	80 91 03 03 	lds	r24, 0x0303
    2512:	98 13       	cpse	r25, r24
    2514:	17 c0       	rjmp	.+46     	; 0x2544 <eth_type_is_ip_and_my_ip+0x5c>
    2516:	90 a1       	ldd	r25, Z+32	; 0x20
    2518:	80 91 04 03 	lds	r24, 0x0304
    251c:	98 13       	cpse	r25, r24
    251e:	14 c0       	rjmp	.+40     	; 0x2548 <eth_type_is_ip_and_my_ip+0x60>
    2520:	81 e0       	ldi	r24, 0x01	; 1
    2522:	21 a1       	ldd	r18, Z+33	; 0x21
    2524:	90 91 05 03 	lds	r25, 0x0305
    2528:	29 17       	cp	r18, r25
    252a:	79 f0       	breq	.+30     	; 0x254a <eth_type_is_ip_and_my_ip+0x62>
    252c:	80 e0       	ldi	r24, 0x00	; 0
    252e:	08 95       	ret

uint8_t eth_type_is_ip_and_my_ip(uint8_t *buf,uint16_t len){
        uint8_t i=0;
        //eth+ip+udp header is 42
        if (len<42){
                return(0);
    2530:	80 e0       	ldi	r24, 0x00	; 0
    2532:	08 95       	ret
        }
        if(buf[ETH_TYPE_H_P]!=ETHTYPE_IP_H_V || 
           buf[ETH_TYPE_L_P]!=ETHTYPE_IP_L_V){
                return(0);
    2534:	80 e0       	ldi	r24, 0x00	; 0
    2536:	08 95       	ret
    2538:	80 e0       	ldi	r24, 0x00	; 0
    253a:	08 95       	ret
        }
        if (buf[IP_HEADER_LEN_VER_P]!=0x45){
                // must be IP V4 and 20 byte header
                return(0);
    253c:	80 e0       	ldi	r24, 0x00	; 0
    253e:	08 95       	ret
        }
        while(i<4){
                if(buf[IP_DST_P+i]!=ipaddr[i]){
                        return(0);
    2540:	80 e0       	ldi	r24, 0x00	; 0
    2542:	08 95       	ret
    2544:	80 e0       	ldi	r24, 0x00	; 0
    2546:	08 95       	ret
    2548:	80 e0       	ldi	r24, 0x00	; 0
                }
                i++;
        }
        return(1);
}
    254a:	08 95       	ret

0000254c <make_eth>:

// make a return eth header from a received eth packet
void make_eth(uint8_t *buf)
{
    254c:	cf 93       	push	r28
    254e:	df 93       	push	r29
    2550:	ec 01       	movw	r28, r24
    2552:	ac ef       	ldi	r26, 0xFC	; 252
    2554:	b2 e0       	ldi	r27, 0x02	; 2
        }
        return(1);
}

// make a return eth header from a received eth packet
void make_eth(uint8_t *buf)
    2556:	fc 01       	movw	r30, r24
    2558:	36 96       	adiw	r30, 0x06	; 6
    255a:	82 e0       	ldi	r24, 0x02	; 2
    255c:	93 e0       	ldi	r25, 0x03	; 3
{
        uint8_t i=0;
        //
        //copy the destination mac from the source and fill my mac into src
        while(i<6){
                buf[ETH_DST_MAC +i]=buf[ETH_SRC_MAC +i];
    255e:	20 81       	ld	r18, Z
    2560:	29 93       	st	Y+, r18
                buf[ETH_SRC_MAC +i]=macaddr[i];
    2562:	2d 91       	ld	r18, X+
    2564:	21 93       	st	Z+, r18
void make_eth(uint8_t *buf)
{
        uint8_t i=0;
        //
        //copy the destination mac from the source and fill my mac into src
        while(i<6){
    2566:	a8 17       	cp	r26, r24
    2568:	b9 07       	cpc	r27, r25
    256a:	c9 f7       	brne	.-14     	; 0x255e <make_eth+0x12>
                buf[ETH_DST_MAC +i]=buf[ETH_SRC_MAC +i];
                buf[ETH_SRC_MAC +i]=macaddr[i];
                i++;
        }
}
    256c:	df 91       	pop	r29
    256e:	cf 91       	pop	r28
    2570:	08 95       	ret

00002572 <fill_ip_hdr_checksum>:
void fill_ip_hdr_checksum(uint8_t *buf)
{
    2572:	cf 93       	push	r28
    2574:	df 93       	push	r29
    2576:	ec 01       	movw	r28, r24
        uint16_t ck;
        // clear the 2 byte checksum
        buf[IP_CHECKSUM_P]=0;
    2578:	18 8e       	std	Y+24, r1	; 0x18
        buf[IP_CHECKSUM_P+1]=0;
    257a:	19 8e       	std	Y+25, r1	; 0x19
        buf[IP_FLAGS_P]=0x40; // don't fragment
    257c:	80 e4       	ldi	r24, 0x40	; 64
    257e:	8c 8b       	std	Y+20, r24	; 0x14
        buf[IP_FLAGS_P+1]=0;  // fragement offset
    2580:	1d 8a       	std	Y+21, r1	; 0x15
        buf[IP_TTL_P]=64; // ttl
    2582:	8e 8b       	std	Y+22, r24	; 0x16
        // calculate the checksum:
        ck=checksum(&buf[IP_P], IP_HEADER_LEN,0);
    2584:	40 e0       	ldi	r20, 0x00	; 0
    2586:	64 e1       	ldi	r22, 0x14	; 20
    2588:	70 e0       	ldi	r23, 0x00	; 0
    258a:	ce 01       	movw	r24, r28
    258c:	0e 96       	adiw	r24, 0x0e	; 14
    258e:	0e 94 cc 11 	call	0x2398	; 0x2398 <checksum>
        buf[IP_CHECKSUM_P]=ck>>8;
    2592:	98 8f       	std	Y+24, r25	; 0x18
        buf[IP_CHECKSUM_P+1]=ck& 0xff;
    2594:	89 8f       	std	Y+25, r24	; 0x19
}
    2596:	df 91       	pop	r29
    2598:	cf 91       	pop	r28
    259a:	08 95       	ret

0000259c <make_ip>:

// make a return ip header from a received ip packet
void make_ip(uint8_t *buf)
{
    259c:	cf 93       	push	r28
    259e:	df 93       	push	r29
        buf[IP_CHECKSUM_P]=ck>>8;
        buf[IP_CHECKSUM_P+1]=ck& 0xff;
}

// make a return ip header from a received ip packet
void make_ip(uint8_t *buf)
    25a0:	ec 01       	movw	r28, r24
    25a2:	6e 96       	adiw	r28, 0x1e	; 30
    25a4:	a2 e0       	ldi	r26, 0x02	; 2
    25a6:	b3 e0       	ldi	r27, 0x03	; 3
    25a8:	fc 01       	movw	r30, r24
    25aa:	7a 96       	adiw	r30, 0x1a	; 26
    25ac:	26 e0       	ldi	r18, 0x06	; 6
    25ae:	33 e0       	ldi	r19, 0x03	; 3
{
        uint8_t i=0;
        while(i<4){
                buf[IP_DST_P+i]=buf[IP_SRC_P+i];
    25b0:	40 81       	ld	r20, Z
    25b2:	49 93       	st	Y+, r20
                buf[IP_SRC_P+i]=ipaddr[i];
    25b4:	4d 91       	ld	r20, X+
    25b6:	41 93       	st	Z+, r20

// make a return ip header from a received ip packet
void make_ip(uint8_t *buf)
{
        uint8_t i=0;
        while(i<4){
    25b8:	a2 17       	cp	r26, r18
    25ba:	b3 07       	cpc	r27, r19
    25bc:	c9 f7       	brne	.-14     	; 0x25b0 <make_ip+0x14>
                buf[IP_DST_P+i]=buf[IP_SRC_P+i];
                buf[IP_SRC_P+i]=ipaddr[i];
                i++;
        }
        fill_ip_hdr_checksum(buf);
    25be:	0e 94 b9 12 	call	0x2572	; 0x2572 <fill_ip_hdr_checksum>
}
    25c2:	df 91       	pop	r29
    25c4:	cf 91       	pop	r28
    25c6:	08 95       	ret

000025c8 <step_seq>:

// swap seq and ack number and count ack number up
void step_seq(uint8_t *buf,uint16_t rel_ack_num,uint8_t cp_seq)
    25c8:	fc 01       	movw	r30, r24
    25ca:	ba 96       	adiw	r30, 0x2a	; 42
    25cc:	dc 01       	movw	r26, r24
    25ce:	9e 96       	adiw	r26, 0x2e	; 46
    25d0:	86 96       	adiw	r24, 0x26	; 38
        uint8_t tseq;
        i=4;
        // sequence numbers:
        // add the rel ack num to SEQACK
        while(i>0){
                rel_ack_num=buf[TCP_SEQ_H_P+i-1]+rel_ack_num;
    25d2:	22 91       	ld	r18, -Z
    25d4:	62 0f       	add	r22, r18
    25d6:	71 1d       	adc	r23, r1
                tseq=buf[TCP_SEQACK_H_P+i-1];
    25d8:	2e 91       	ld	r18, -X
                buf[TCP_SEQACK_H_P+i-1]=0xff&rel_ack_num;
    25da:	6c 93       	st	X, r22
                if (cp_seq){
    25dc:	44 23       	and	r20, r20
    25de:	11 f0       	breq	.+4      	; 0x25e4 <step_seq+0x1c>
                        // copy the acknum sent to us into the sequence number
                        buf[TCP_SEQ_H_P+i-1]=tseq;
    25e0:	20 83       	st	Z, r18
    25e2:	01 c0       	rjmp	.+2      	; 0x25e6 <step_seq+0x1e>
                }else{
                        buf[TCP_SEQ_H_P+i-1]= 0; // some preset value
    25e4:	10 82       	st	Z, r1
                }
                rel_ack_num=rel_ack_num>>8;
    25e6:	67 2f       	mov	r22, r23
    25e8:	77 27       	eor	r23, r23
        uint8_t i;
        uint8_t tseq;
        i=4;
        // sequence numbers:
        // add the rel ack num to SEQACK
        while(i>0){
    25ea:	e8 17       	cp	r30, r24
    25ec:	f9 07       	cpc	r31, r25
    25ee:	89 f7       	brne	.-30     	; 0x25d2 <step_seq+0xa>
                        buf[TCP_SEQ_H_P+i-1]= 0; // some preset value
                }
                rel_ack_num=rel_ack_num>>8;
                i--;
        }
}
    25f0:	08 95       	ret

000025f2 <make_tcphead>:
//
// After calling this function you can fill in the first data byte at TCP_OPTIONS_P+4
// If cp_seq=0 then an initial sequence number is used (should be use in synack)
// otherwise it is copied from the packet we received
void make_tcphead(uint8_t *buf,uint16_t rel_ack_num,uint8_t cp_seq)
{
    25f2:	cf 93       	push	r28
    25f4:	df 93       	push	r29
    25f6:	ec 01       	movw	r28, r24
        uint8_t i;
        // copy ports:
        i=buf[TCP_DST_PORT_H_P];
    25f8:	8c a1       	ldd	r24, Y+36	; 0x24
        buf[TCP_DST_PORT_H_P]=buf[TCP_SRC_PORT_H_P];
    25fa:	9a a1       	ldd	r25, Y+34	; 0x22
    25fc:	9c a3       	std	Y+36, r25	; 0x24
        buf[TCP_SRC_PORT_H_P]=i;
    25fe:	8a a3       	std	Y+34, r24	; 0x22
        //
        i=buf[TCP_DST_PORT_L_P];
    2600:	8d a1       	ldd	r24, Y+37	; 0x25
        buf[TCP_DST_PORT_L_P]=buf[TCP_SRC_PORT_L_P];
    2602:	9b a1       	ldd	r25, Y+35	; 0x23
    2604:	9d a3       	std	Y+37, r25	; 0x25
        buf[TCP_SRC_PORT_L_P]=i;
    2606:	8b a3       	std	Y+35, r24	; 0x23
        step_seq(buf,rel_ack_num,cp_seq);
    2608:	ce 01       	movw	r24, r28
    260a:	0e 94 e4 12 	call	0x25c8	; 0x25c8 <step_seq>
        // zero the checksum
        buf[TCP_CHECKSUM_H_P]=0;
    260e:	1a aa       	std	Y+50, r1	; 0x32
        buf[TCP_CHECKSUM_L_P]=0;
    2610:	1b aa       	std	Y+51, r1	; 0x33
        // no options:
        // 20 bytes:
        // The tcp header length is only a 4 bit field (the upper 4 bits).
        // It is calculated in units of 4 bytes.
        // E.g 20 bytes: 20/4=6 => 0x50=header len field
        buf[TCP_HEADER_LEN_P]=0x50;
    2612:	80 e5       	ldi	r24, 0x50	; 80
    2614:	8e a7       	std	Y+46, r24	; 0x2e
}
    2616:	df 91       	pop	r29
    2618:	cf 91       	pop	r28
    261a:	08 95       	ret

0000261c <make_arp_answer_from_request>:

void make_arp_answer_from_request(uint8_t *buf)
{
    261c:	0f 93       	push	r16
    261e:	1f 93       	push	r17
    2620:	cf 93       	push	r28
    2622:	df 93       	push	r29
    2624:	8c 01       	movw	r16, r24
        uint8_t i=0;
        //
        make_eth(buf);
    2626:	0e 94 a6 12 	call	0x254c	; 0x254c <make_eth>
        buf[ETH_ARP_OPCODE_H_P]=ETH_ARP_OPCODE_REPLY_H_V;
    262a:	f8 01       	movw	r30, r16
    262c:	14 8a       	std	Z+20, r1	; 0x14
        buf[ETH_ARP_OPCODE_L_P]=ETH_ARP_OPCODE_REPLY_L_V;
    262e:	82 e0       	ldi	r24, 0x02	; 2
    2630:	85 8b       	std	Z+21, r24	; 0x15
        // It is calculated in units of 4 bytes.
        // E.g 20 bytes: 20/4=6 => 0x50=header len field
        buf[TCP_HEADER_LEN_P]=0x50;
}

void make_arp_answer_from_request(uint8_t *buf)
    2632:	e8 01       	movw	r28, r16
    2634:	a0 96       	adiw	r28, 0x20	; 32
    2636:	ac ef       	ldi	r26, 0xFC	; 252
    2638:	b2 e0       	ldi	r27, 0x02	; 2
    263a:	76 96       	adiw	r30, 0x16	; 22
    263c:	82 e0       	ldi	r24, 0x02	; 2
    263e:	93 e0       	ldi	r25, 0x03	; 3
        make_eth(buf);
        buf[ETH_ARP_OPCODE_H_P]=ETH_ARP_OPCODE_REPLY_H_V;
        buf[ETH_ARP_OPCODE_L_P]=ETH_ARP_OPCODE_REPLY_L_V;
        // fill the mac addresses:
        while(i<6){
                buf[ETH_ARP_DST_MAC_P+i]=buf[ETH_ARP_SRC_MAC_P+i];
    2640:	20 81       	ld	r18, Z
    2642:	29 93       	st	Y+, r18
                buf[ETH_ARP_SRC_MAC_P+i]=macaddr[i];
    2644:	2d 91       	ld	r18, X+
    2646:	21 93       	st	Z+, r18
        //
        make_eth(buf);
        buf[ETH_ARP_OPCODE_H_P]=ETH_ARP_OPCODE_REPLY_H_V;
        buf[ETH_ARP_OPCODE_L_P]=ETH_ARP_OPCODE_REPLY_L_V;
        // fill the mac addresses:
        while(i<6){
    2648:	a8 17       	cp	r26, r24
    264a:	b9 07       	cpc	r27, r25
    264c:	c9 f7       	brne	.-14     	; 0x2640 <make_arp_answer_from_request+0x24>
        // It is calculated in units of 4 bytes.
        // E.g 20 bytes: 20/4=6 => 0x50=header len field
        buf[TCP_HEADER_LEN_P]=0x50;
}

void make_arp_answer_from_request(uint8_t *buf)
    264e:	e8 01       	movw	r28, r16
    2650:	a6 96       	adiw	r28, 0x26	; 38
    2652:	a2 e0       	ldi	r26, 0x02	; 2
    2654:	b3 e0       	ldi	r27, 0x03	; 3
    2656:	f8 01       	movw	r30, r16
    2658:	7c 96       	adiw	r30, 0x1c	; 28
    265a:	86 e0       	ldi	r24, 0x06	; 6
    265c:	93 e0       	ldi	r25, 0x03	; 3
                buf[ETH_ARP_SRC_MAC_P+i]=macaddr[i];
                i++;
        }
        i=0;
        while(i<4){
                buf[ETH_ARP_DST_IP_P+i]=buf[ETH_ARP_SRC_IP_P+i];
    265e:	20 81       	ld	r18, Z
    2660:	29 93       	st	Y+, r18
                buf[ETH_ARP_SRC_IP_P+i]=ipaddr[i];
    2662:	2d 91       	ld	r18, X+
    2664:	21 93       	st	Z+, r18
                buf[ETH_ARP_DST_MAC_P+i]=buf[ETH_ARP_SRC_MAC_P+i];
                buf[ETH_ARP_SRC_MAC_P+i]=macaddr[i];
                i++;
        }
        i=0;
        while(i<4){
    2666:	a8 17       	cp	r26, r24
    2668:	b9 07       	cpc	r27, r25
    266a:	c9 f7       	brne	.-14     	; 0x265e <make_arp_answer_from_request+0x42>
                buf[ETH_ARP_DST_IP_P+i]=buf[ETH_ARP_SRC_IP_P+i];
                buf[ETH_ARP_SRC_IP_P+i]=ipaddr[i];
                i++;
        }
        // eth+arp is 42 bytes:
        enc28j60PacketSend(42,buf); 
    266c:	b8 01       	movw	r22, r16
    266e:	8a e2       	ldi	r24, 0x2A	; 42
    2670:	90 e0       	ldi	r25, 0x00	; 0
    2672:	0e 94 06 04 	call	0x80c	; 0x80c <enc28j60PacketSend>
}
    2676:	df 91       	pop	r29
    2678:	cf 91       	pop	r28
    267a:	1f 91       	pop	r17
    267c:	0f 91       	pop	r16
    267e:	08 95       	ret

00002680 <make_echo_reply_from_request>:

void make_echo_reply_from_request(uint8_t *buf,uint16_t len)
{
    2680:	0f 93       	push	r16
    2682:	1f 93       	push	r17
    2684:	cf 93       	push	r28
    2686:	df 93       	push	r29
    2688:	ec 01       	movw	r28, r24
    268a:	8b 01       	movw	r16, r22
        make_eth(buf);
    268c:	0e 94 a6 12 	call	0x254c	; 0x254c <make_eth>
        make_ip(buf);
    2690:	ce 01       	movw	r24, r28
    2692:	0e 94 ce 12 	call	0x259c	; 0x259c <make_ip>
        buf[ICMP_TYPE_P]=ICMP_TYPE_ECHOREPLY_V;
    2696:	1a a2       	std	Y+34, r1	; 0x22
        // we changed only the icmp.type field from request(=8) to reply(=0).
        // we can therefore easily correct the checksum:
        if (buf[ICMP_CHECKSUM_P] > (0xff-0x08)){
    2698:	8c a1       	ldd	r24, Y+36	; 0x24
    269a:	88 3f       	cpi	r24, 0xF8	; 248
    269c:	18 f0       	brcs	.+6      	; 0x26a4 <make_echo_reply_from_request+0x24>
                buf[ICMP_CHECKSUM_P+1]++;
    269e:	9d a1       	ldd	r25, Y+37	; 0x25
    26a0:	9f 5f       	subi	r25, 0xFF	; 255
    26a2:	9d a3       	std	Y+37, r25	; 0x25
        }
        buf[ICMP_CHECKSUM_P]+=0x08;
    26a4:	88 5f       	subi	r24, 0xF8	; 248
    26a6:	8c a3       	std	Y+36, r24	; 0x24
        //
        enc28j60PacketSend(len,buf);
    26a8:	be 01       	movw	r22, r28
    26aa:	c8 01       	movw	r24, r16
    26ac:	0e 94 06 04 	call	0x80c	; 0x80c <enc28j60PacketSend>
}
    26b0:	df 91       	pop	r29
    26b2:	cf 91       	pop	r28
    26b4:	1f 91       	pop	r17
    26b6:	0f 91       	pop	r16
    26b8:	08 95       	ret

000026ba <get_tcp_data_len>:

// do some basic length calculations 
uint16_t get_tcp_data_len(uint8_t *buf)
{
    26ba:	fc 01       	movw	r30, r24
        int16_t i;
        i=(((int16_t)buf[IP_TOTLEN_H_P])<<8)|(buf[IP_TOTLEN_L_P]&0xff);
    26bc:	30 89       	ldd	r19, Z+16	; 0x10
    26be:	20 e0       	ldi	r18, 0x00	; 0
    26c0:	81 89       	ldd	r24, Z+17	; 0x11
    26c2:	28 2b       	or	r18, r24
        i-=IP_HEADER_LEN;
    26c4:	24 51       	subi	r18, 0x14	; 20
    26c6:	31 09       	sbc	r19, r1
        i-=(buf[TCP_HEADER_LEN_P]>>4)*4; // generate len in bytes;
    26c8:	86 a5       	ldd	r24, Z+46	; 0x2e
    26ca:	82 95       	swap	r24
    26cc:	8f 70       	andi	r24, 0x0F	; 15
    26ce:	94 e0       	ldi	r25, 0x04	; 4
    26d0:	89 9f       	mul	r24, r25
    26d2:	20 19       	sub	r18, r0
    26d4:	31 09       	sbc	r19, r1
    26d6:	11 24       	eor	r1, r1
        if (i<=0){
                i=0;
        }
        return((uint16_t)i);
    26d8:	33 23       	and	r19, r19
    26da:	14 f4       	brge	.+4      	; 0x26e0 <get_tcp_data_len+0x26>
    26dc:	20 e0       	ldi	r18, 0x00	; 0
    26de:	30 e0       	ldi	r19, 0x00	; 0
}
    26e0:	82 2f       	mov	r24, r18
    26e2:	93 2f       	mov	r25, r19
    26e4:	08 95       	ret

000026e6 <fill_tcp_data_p>:

// fill in tcp data at position pos. pos=0 means start of
// tcp data. Returns the position at which the string after
// this string could be filled.
uint16_t fill_tcp_data_p(uint8_t *buf,uint16_t pos, const char *progmem_s)
{
    26e6:	cf 93       	push	r28
    26e8:	df 93       	push	r29
        char c;
        // fill in tcp data at position pos
        //
        // with no options the data starts after the checksum + 2 more bytes (urgent ptr)
        while ((c = pgm_read_byte(progmem_s++))) {
    26ea:	c4 2f       	mov	r28, r20
    26ec:	d5 2f       	mov	r29, r21
    26ee:	fe 01       	movw	r30, r28
    26f0:	44 91       	lpm	r20, Z
    26f2:	44 23       	and	r20, r20
    26f4:	89 f0       	breq	.+34     	; 0x2718 <fill_tcp_data_p+0x32>


// fill in tcp data at position pos. pos=0 means start of
// tcp data. Returns the position at which the string after
// this string could be filled.
uint16_t fill_tcp_data_p(uint8_t *buf,uint16_t pos, const char *progmem_s)
    26f6:	db 01       	movw	r26, r22
    26f8:	d6 96       	adiw	r26, 0x36	; 54
    26fa:	a8 0f       	add	r26, r24
    26fc:	b9 1f       	adc	r27, r25
    26fe:	9b 01       	movw	r18, r22
        char c;
        // fill in tcp data at position pos
        //
        // with no options the data starts after the checksum + 2 more bytes (urgent ptr)
        while ((c = pgm_read_byte(progmem_s++))) {
                buf[TCP_CHECKSUM_L_P+3+pos]=c;
    2700:	4d 93       	st	X+, r20
                pos++;
    2702:	2f 5f       	subi	r18, 0xFF	; 255
    2704:	3f 4f       	sbci	r19, 0xFF	; 255


// fill in tcp data at position pos. pos=0 means start of
// tcp data. Returns the position at which the string after
// this string could be filled.
uint16_t fill_tcp_data_p(uint8_t *buf,uint16_t pos, const char *progmem_s)
    2706:	f9 01       	movw	r30, r18
    2708:	e6 1b       	sub	r30, r22
    270a:	f7 0b       	sbc	r31, r23
    270c:	ec 0f       	add	r30, r28
    270e:	fd 1f       	adc	r31, r29
{
        char c;
        // fill in tcp data at position pos
        //
        // with no options the data starts after the checksum + 2 more bytes (urgent ptr)
        while ((c = pgm_read_byte(progmem_s++))) {
    2710:	44 91       	lpm	r20, Z
    2712:	41 11       	cpse	r20, r1
    2714:	f5 cf       	rjmp	.-22     	; 0x2700 <fill_tcp_data_p+0x1a>
    2716:	01 c0       	rjmp	.+2      	; 0x271a <fill_tcp_data_p+0x34>
    2718:	9b 01       	movw	r18, r22
                buf[TCP_CHECKSUM_L_P+3+pos]=c;
                pos++;
        }
        return(pos);
}
    271a:	82 2f       	mov	r24, r18
    271c:	93 2f       	mov	r25, r19
    271e:	df 91       	pop	r29
    2720:	cf 91       	pop	r28
    2722:	08 95       	ret

00002724 <fill_tcp_data_len>:
uint16_t fill_tcp_data_len(uint8_t *buf,uint16_t pos, const uint8_t *s, uint8_t len)
{
        // fill in tcp data at position pos
        //
        // with no options the data starts after the checksum + 2 more bytes (urgent ptr)
        while (len) {
    2724:	22 23       	and	r18, r18
    2726:	81 f0       	breq	.+32     	; 0x2748 <fill_tcp_data_len+0x24>
    2728:	e4 2f       	mov	r30, r20
    272a:	f5 2f       	mov	r31, r21
        }
        return(pos);
}

// fill a binary string of len data into the tcp packet
uint16_t fill_tcp_data_len(uint8_t *buf,uint16_t pos, const uint8_t *s, uint8_t len)
    272c:	db 01       	movw	r26, r22
    272e:	d6 96       	adiw	r26, 0x36	; 54
    2730:	a8 0f       	add	r26, r24
    2732:	b9 1f       	adc	r27, r25
    2734:	82 2f       	mov	r24, r18
{
        // fill in tcp data at position pos
        //
        // with no options the data starts after the checksum + 2 more bytes (urgent ptr)
        while (len) {
                buf[TCP_CHECKSUM_L_P+3+pos]=*s;
    2736:	91 91       	ld	r25, Z+
    2738:	9d 93       	st	X+, r25
                pos++;
                s++;
                len--;
    273a:	81 50       	subi	r24, 0x01	; 1
uint16_t fill_tcp_data_len(uint8_t *buf,uint16_t pos, const uint8_t *s, uint8_t len)
{
        // fill in tcp data at position pos
        //
        // with no options the data starts after the checksum + 2 more bytes (urgent ptr)
        while (len) {
    273c:	e1 f7       	brne	.-8      	; 0x2736 <fill_tcp_data_len+0x12>
        }
        return(pos);
}

// fill a binary string of len data into the tcp packet
uint16_t fill_tcp_data_len(uint8_t *buf,uint16_t pos, const uint8_t *s, uint8_t len)
    273e:	6f 5f       	subi	r22, 0xFF	; 255
    2740:	7f 4f       	sbci	r23, 0xFF	; 255
    2742:	21 50       	subi	r18, 0x01	; 1
    2744:	62 0f       	add	r22, r18
    2746:	71 1d       	adc	r23, r1
                pos++;
                s++;
                len--;
        }
        return(pos);
}
    2748:	86 2f       	mov	r24, r22
    274a:	97 2f       	mov	r25, r23
    274c:	08 95       	ret

0000274e <fill_tcp_data>:
// fill in tcp data at position pos. pos=0 means start of
// tcp data. Returns the position at which the string after
// this string could be filled.
uint16_t fill_tcp_data(uint8_t *buf,uint16_t pos, const char *s)
{
        return(fill_tcp_data_len(buf,pos,(uint8_t*)s,strlen(s)));
    274e:	e4 2f       	mov	r30, r20
    2750:	f5 2f       	mov	r31, r21
    2752:	df 01       	movw	r26, r30
    2754:	0d 90       	ld	r0, X+
    2756:	00 20       	and	r0, r0
    2758:	e9 f7       	brne	.-6      	; 0x2754 <fill_tcp_data+0x6>
    275a:	11 97       	sbiw	r26, 0x01	; 1
    275c:	9d 01       	movw	r18, r26
    275e:	2e 1b       	sub	r18, r30
    2760:	3f 0b       	sbc	r19, r31
    2762:	0e 94 92 13 	call	0x2724	; 0x2724 <fill_tcp_data_len>
}
    2766:	08 95       	ret

00002768 <make_tcp_ack_from_any>:

// Make just an ack packet with no tcp data inside
// This will modify the eth/ip/tcp header 
void make_tcp_ack_from_any(uint8_t *buf,int16_t datlentoack,uint8_t addflags)
{
    2768:	ff 92       	push	r15
    276a:	0f 93       	push	r16
    276c:	1f 93       	push	r17
    276e:	cf 93       	push	r28
    2770:	df 93       	push	r29
    2772:	ec 01       	movw	r28, r24
    2774:	8b 01       	movw	r16, r22
    2776:	f4 2e       	mov	r15, r20
        uint16_t j;
        make_eth(buf);
    2778:	0e 94 a6 12 	call	0x254c	; 0x254c <make_eth>
        // fill the header:
        buf[TCP_FLAGS_P]=TCP_FLAGS_ACK_V|addflags;
    277c:	8f 2d       	mov	r24, r15
    277e:	80 61       	ori	r24, 0x10	; 16
    2780:	8f a7       	std	Y+47, r24	; 0x2f
        if (addflags==TCP_FLAGS_RST_V){
    2782:	84 e0       	ldi	r24, 0x04	; 4
    2784:	f8 12       	cpse	r15, r24
    2786:	06 c0       	rjmp	.+12     	; 0x2794 <make_tcp_ack_from_any+0x2c>
                make_tcphead(buf,datlentoack,1); 
    2788:	41 e0       	ldi	r20, 0x01	; 1
    278a:	b8 01       	movw	r22, r16
    278c:	ce 01       	movw	r24, r28
    278e:	0e 94 f9 12 	call	0x25f2	; 0x25f2 <make_tcphead>
    2792:	0a c0       	rjmp	.+20     	; 0x27a8 <make_tcp_ack_from_any+0x40>
        }else{
                if (datlentoack==0){
    2794:	01 15       	cp	r16, r1
    2796:	11 05       	cpc	r17, r1
    2798:	11 f4       	brne	.+4      	; 0x279e <make_tcp_ack_from_any+0x36>
                        // if there is no data then we must still acknoledge one packet
                        datlentoack=1;
    279a:	01 e0       	ldi	r16, 0x01	; 1
    279c:	10 e0       	ldi	r17, 0x00	; 0
                }
                // normal case, ack the data:
                make_tcphead(buf,datlentoack,1); // no options
    279e:	41 e0       	ldi	r20, 0x01	; 1
    27a0:	b8 01       	movw	r22, r16
    27a2:	ce 01       	movw	r24, r28
    27a4:	0e 94 f9 12 	call	0x25f2	; 0x25f2 <make_tcphead>
        }
        // total length field in the IP header must be set:
        // 20 bytes IP + 20 bytes tcp (when no options) 
        j=IP_HEADER_LEN+TCP_HEADER_LEN_PLAIN;
        buf[IP_TOTLEN_H_P]=j>>8;
    27a8:	18 8a       	std	Y+16, r1	; 0x10
        buf[IP_TOTLEN_L_P]=j& 0xff;
    27aa:	88 e2       	ldi	r24, 0x28	; 40
    27ac:	89 8b       	std	Y+17, r24	; 0x11
        make_ip(buf);
    27ae:	ce 01       	movw	r24, r28
    27b0:	0e 94 ce 12 	call	0x259c	; 0x259c <make_ip>
        // use a low window size otherwise we have to have
        // timers and can not just react on every packet.
        buf[TCP_WIN_SIZE]=0x4; // 1024=0x400, 1280=0x500 2048=0x800 768=0x300
    27b4:	84 e0       	ldi	r24, 0x04	; 4
    27b6:	88 ab       	std	Y+48, r24	; 0x30
        buf[TCP_WIN_SIZE+1]=0;
    27b8:	19 aa       	std	Y+49, r1	; 0x31
        // calculate the checksum, len=8 (start from ip.src) + TCP_HEADER_LEN_PLAIN + data len
        j=checksum(&buf[IP_SRC_P], 8+TCP_HEADER_LEN_PLAIN,2);
    27ba:	42 e0       	ldi	r20, 0x02	; 2
    27bc:	6c e1       	ldi	r22, 0x1C	; 28
    27be:	70 e0       	ldi	r23, 0x00	; 0
    27c0:	ce 01       	movw	r24, r28
    27c2:	4a 96       	adiw	r24, 0x1a	; 26
    27c4:	0e 94 cc 11 	call	0x2398	; 0x2398 <checksum>
        buf[TCP_CHECKSUM_H_P]=j>>8;
    27c8:	9a ab       	std	Y+50, r25	; 0x32
        buf[TCP_CHECKSUM_L_P]=j& 0xff;
    27ca:	8b ab       	std	Y+51, r24	; 0x33
        enc28j60PacketSend(IP_HEADER_LEN+TCP_HEADER_LEN_PLAIN+ETH_HEADER_LEN,buf);
    27cc:	be 01       	movw	r22, r28
    27ce:	86 e3       	ldi	r24, 0x36	; 54
    27d0:	90 e0       	ldi	r25, 0x00	; 0
    27d2:	0e 94 06 04 	call	0x80c	; 0x80c <enc28j60PacketSend>
}
    27d6:	df 91       	pop	r29
    27d8:	cf 91       	pop	r28
    27da:	1f 91       	pop	r17
    27dc:	0f 91       	pop	r16
    27de:	ff 90       	pop	r15
    27e0:	08 95       	ret

000027e2 <make_tcp_ack_with_data_noflags>:
// You can use this function only immediately after make_tcp_ack_from_any
// This is because this function will NOT modify the eth/ip/tcp header except for
// length and checksum
// You must set TCP_FLAGS before calling this
void make_tcp_ack_with_data_noflags(uint8_t *buf,uint16_t dlen)
{
    27e2:	0f 93       	push	r16
    27e4:	1f 93       	push	r17
    27e6:	cf 93       	push	r28
    27e8:	df 93       	push	r29
    27ea:	ec 01       	movw	r28, r24
    27ec:	8b 01       	movw	r16, r22
        uint16_t j;
        // total length field in the IP header must be set:
        // 20 bytes IP + 20 bytes tcp (when no options) + len of data
        j=IP_HEADER_LEN+TCP_HEADER_LEN_PLAIN+dlen;
    27ee:	cb 01       	movw	r24, r22
    27f0:	88 96       	adiw	r24, 0x28	; 40
        buf[IP_TOTLEN_H_P]=j>>8;
    27f2:	98 8b       	std	Y+16, r25	; 0x10
        buf[IP_TOTLEN_L_P]=j& 0xff;
    27f4:	89 8b       	std	Y+17, r24	; 0x11
        fill_ip_hdr_checksum(buf);
    27f6:	ce 01       	movw	r24, r28
    27f8:	0e 94 b9 12 	call	0x2572	; 0x2572 <fill_ip_hdr_checksum>
        // zero the checksum
        buf[TCP_CHECKSUM_H_P]=0;
    27fc:	1a aa       	std	Y+50, r1	; 0x32
        buf[TCP_CHECKSUM_L_P]=0;
    27fe:	1b aa       	std	Y+51, r1	; 0x33
        // calculate the checksum, len=8 (start from ip.src) + TCP_HEADER_LEN_PLAIN + data len
        j=checksum(&buf[IP_SRC_P], 8+TCP_HEADER_LEN_PLAIN+dlen,2);
    2800:	b8 01       	movw	r22, r16
    2802:	64 5e       	subi	r22, 0xE4	; 228
    2804:	7f 4f       	sbci	r23, 0xFF	; 255
    2806:	42 e0       	ldi	r20, 0x02	; 2
    2808:	ce 01       	movw	r24, r28
    280a:	4a 96       	adiw	r24, 0x1a	; 26
    280c:	0e 94 cc 11 	call	0x2398	; 0x2398 <checksum>
        buf[TCP_CHECKSUM_H_P]=j>>8;
    2810:	9a ab       	std	Y+50, r25	; 0x32
        buf[TCP_CHECKSUM_L_P]=j& 0xff;
    2812:	8b ab       	std	Y+51, r24	; 0x33
        enc28j60PacketSend(IP_HEADER_LEN+TCP_HEADER_LEN_PLAIN+dlen+ETH_HEADER_LEN,buf);
    2814:	be 01       	movw	r22, r28
    2816:	c8 01       	movw	r24, r16
    2818:	c6 96       	adiw	r24, 0x36	; 54
    281a:	0e 94 06 04 	call	0x80c	; 0x80c <enc28j60PacketSend>
}
    281e:	df 91       	pop	r29
    2820:	cf 91       	pop	r28
    2822:	1f 91       	pop	r17
    2824:	0f 91       	pop	r16
    2826:	08 95       	ret

00002828 <make_tcp_ack_with_data>:

void make_tcp_ack_with_data(uint8_t *buf,uint16_t dlen)
{
    2828:	0f 93       	push	r16
    282a:	1f 93       	push	r17
    282c:	cf 93       	push	r28
    282e:	df 93       	push	r29
    2830:	ec 01       	movw	r28, r24
    2832:	8b 01       	movw	r16, r22
	uint16_t j;
	// fill the header:
	// This code requires that we send only one data packet
	// because we keep no state information. We must therefore set
	// the fin here:
	buf[TCP_FLAGS_P]=TCP_FLAGS_ACK_V|TCP_FLAGS_PUSH_V|TCP_FLAGS_FIN_V;
    2834:	89 e1       	ldi	r24, 0x19	; 25
    2836:	8f a7       	std	Y+47, r24	; 0x2f

	// total length field in the IP header must be set:
	// 20 bytes IP + 20 bytes tcp (when no options) + len of data
	j=IP_HEADER_LEN+TCP_HEADER_LEN_PLAIN+dlen;
    2838:	cb 01       	movw	r24, r22
    283a:	88 96       	adiw	r24, 0x28	; 40
	buf[IP_TOTLEN_H_P]=j>>8;
    283c:	98 8b       	std	Y+16, r25	; 0x10
	buf[IP_TOTLEN_L_P]=j& 0xff;
    283e:	89 8b       	std	Y+17, r24	; 0x11
	fill_ip_hdr_checksum(buf);
    2840:	ce 01       	movw	r24, r28
    2842:	0e 94 b9 12 	call	0x2572	; 0x2572 <fill_ip_hdr_checksum>
	// zero the checksum
	buf[TCP_CHECKSUM_H_P]=0;
    2846:	1a aa       	std	Y+50, r1	; 0x32
	buf[TCP_CHECKSUM_L_P]=0;
    2848:	1b aa       	std	Y+51, r1	; 0x33
	// calculate the checksum, len=8 (start from ip.src) + TCP_HEADER_LEN_PLAIN + data len
	j=checksum(&buf[IP_SRC_P], 8+TCP_HEADER_LEN_PLAIN+dlen,2);
    284a:	b8 01       	movw	r22, r16
    284c:	64 5e       	subi	r22, 0xE4	; 228
    284e:	7f 4f       	sbci	r23, 0xFF	; 255
    2850:	42 e0       	ldi	r20, 0x02	; 2
    2852:	ce 01       	movw	r24, r28
    2854:	4a 96       	adiw	r24, 0x1a	; 26
    2856:	0e 94 cc 11 	call	0x2398	; 0x2398 <checksum>
	buf[TCP_CHECKSUM_H_P]=j>>8;
    285a:	9a ab       	std	Y+50, r25	; 0x32
	buf[TCP_CHECKSUM_L_P]=j& 0xff;
    285c:	8b ab       	std	Y+51, r24	; 0x33
	enc28j60PacketSend(IP_HEADER_LEN+TCP_HEADER_LEN_PLAIN+dlen+ETH_HEADER_LEN,buf);
    285e:	be 01       	movw	r22, r28
    2860:	c8 01       	movw	r24, r16
    2862:	c6 96       	adiw	r24, 0x36	; 54
    2864:	0e 94 06 04 	call	0x80c	; 0x80c <enc28j60PacketSend>
}
    2868:	df 91       	pop	r29
    286a:	cf 91       	pop	r28
    286c:	1f 91       	pop	r17
    286e:	0f 91       	pop	r16
    2870:	08 95       	ret

00002872 <init_udp_or_www_server>:
// This initializes server
// you must call this function once before you use any of the other functions:
// mymac may be NULL and can be used if you did already call init_mac
void init_udp_or_www_server(uint8_t *mymac,uint8_t *myip){
        uint8_t i=0;
        if (myip){
    2872:	61 15       	cp	r22, r1
    2874:	71 05       	cpc	r23, r1
    2876:	51 f0       	breq	.+20     	; 0x288c <init_udp_or_www_server+0x1a>
    2878:	db 01       	movw	r26, r22
    287a:	e2 e0       	ldi	r30, 0x02	; 2
    287c:	f3 e0       	ldi	r31, 0x03	; 3

#if defined (UDP_server) || defined (WWW_server)
// This initializes server
// you must call this function once before you use any of the other functions:
// mymac may be NULL and can be used if you did already call init_mac
void init_udp_or_www_server(uint8_t *mymac,uint8_t *myip){
    287e:	26 e0       	ldi	r18, 0x06	; 6
    2880:	33 e0       	ldi	r19, 0x03	; 3
        uint8_t i=0;
        if (myip){
                while(i<4){
                        ipaddr[i]=myip[i];
    2882:	4d 91       	ld	r20, X+
    2884:	41 93       	st	Z+, r20
// you must call this function once before you use any of the other functions:
// mymac may be NULL and can be used if you did already call init_mac
void init_udp_or_www_server(uint8_t *mymac,uint8_t *myip){
        uint8_t i=0;
        if (myip){
                while(i<4){
    2886:	e2 17       	cp	r30, r18
    2888:	f3 07       	cpc	r31, r19
    288a:	d9 f7       	brne	.-10     	; 0x2882 <init_udp_or_www_server+0x10>
                        ipaddr[i]=myip[i];
                        i++;
                }
        }
        if (mymac) init_mac(mymac);
    288c:	00 97       	sbiw	r24, 0x00	; 0
    288e:	11 f0       	breq	.+4      	; 0x2894 <init_udp_or_www_server+0x22>
    2890:	0e 94 3c 12 	call	0x2478	; 0x2478 <init_mac>
    2894:	08 95       	ret

00002896 <www_server_port>:
#endif // UDP_server || WWW_server

#ifdef WWW_server
// not needed if you want port 80 (the default is port 80):
void www_server_port(uint16_t port){
        wwwport_h=(port>>8)&0xff;
    2896:	90 93 06 03 	sts	0x0306, r25
        wwwport_l=(port&0xff);
    289a:	80 93 7d 00 	sts	0x007D, r24
    289e:	08 95       	ret

000028a0 <make_tcp_synack_from_syn>:
}

// this is for the server not the client:
void make_tcp_synack_from_syn(uint8_t *buf)
{
    28a0:	cf 93       	push	r28
    28a2:	df 93       	push	r29
    28a4:	ec 01       	movw	r28, r24
        uint16_t ck;
        make_eth(buf);
    28a6:	0e 94 a6 12 	call	0x254c	; 0x254c <make_eth>
        // total length field in the IP header must be set:
        // 20 bytes IP + 24 bytes (20tcp+4tcp options)
        buf[IP_TOTLEN_H_P]=0;
    28aa:	18 8a       	std	Y+16, r1	; 0x10
        buf[IP_TOTLEN_L_P]=IP_HEADER_LEN+TCP_HEADER_LEN_PLAIN+4;
    28ac:	8c e2       	ldi	r24, 0x2C	; 44
    28ae:	89 8b       	std	Y+17, r24	; 0x11
        make_ip(buf);
    28b0:	ce 01       	movw	r24, r28
    28b2:	0e 94 ce 12 	call	0x259c	; 0x259c <make_ip>
        buf[TCP_FLAGS_P]=TCP_FLAGS_SYNACK_V;
    28b6:	82 e1       	ldi	r24, 0x12	; 18
    28b8:	8f a7       	std	Y+47, r24	; 0x2f
        make_tcphead(buf,1,0);
    28ba:	40 e0       	ldi	r20, 0x00	; 0
    28bc:	61 e0       	ldi	r22, 0x01	; 1
    28be:	70 e0       	ldi	r23, 0x00	; 0
    28c0:	ce 01       	movw	r24, r28
    28c2:	0e 94 f9 12 	call	0x25f2	; 0x25f2 <make_tcphead>
        // put an inital seq number
        buf[TCP_SEQ_H_P+0]= 0;
    28c6:	1e a2       	std	Y+38, r1	; 0x26
        buf[TCP_SEQ_H_P+1]= 0;
    28c8:	1f a2       	std	Y+39, r1	; 0x27
        // we step only the second byte, this allows us to send packts 
        // with 255 bytes, 512  or 765 (step by 3) without generating
        // overlapping numbers.
        buf[TCP_SEQ_H_P+2]= seqnum; 
    28ca:	80 91 7e 00 	lds	r24, 0x007E
    28ce:	88 a7       	std	Y+40, r24	; 0x28
        buf[TCP_SEQ_H_P+3]= 0;
    28d0:	19 a6       	std	Y+41, r1	; 0x29
        // step the inititial seq num by something we will not use
        // during this tcp session:
        seqnum+=3;
    28d2:	8d 5f       	subi	r24, 0xFD	; 253
    28d4:	80 93 7e 00 	sts	0x007E, r24
        // add an mss options field with MSS to 1280:
        // 1280 in hex is 0x500
        buf[TCP_OPTIONS_P]=2;
    28d8:	82 e0       	ldi	r24, 0x02	; 2
    28da:	8e ab       	std	Y+54, r24	; 0x36
        buf[TCP_OPTIONS_P+1]=4;
    28dc:	84 e0       	ldi	r24, 0x04	; 4
    28de:	8f ab       	std	Y+55, r24	; 0x37
        buf[TCP_OPTIONS_P+2]=0x05;
    28e0:	85 e0       	ldi	r24, 0x05	; 5
    28e2:	88 af       	std	Y+56, r24	; 0x38
        buf[TCP_OPTIONS_P+3]=0x0;
    28e4:	19 ae       	std	Y+57, r1	; 0x39
        // The tcp header length is only a 4 bit field (the upper 4 bits).
        // It is calculated in units of 4 bytes.
        // E.g 24 bytes: 24/4=6 => 0x60=header len field
        buf[TCP_HEADER_LEN_P]=0x60;
    28e6:	80 e6       	ldi	r24, 0x60	; 96
    28e8:	8e a7       	std	Y+46, r24	; 0x2e
        // here we must just be sure that the web browser contacting us
        // will send only one get packet
        buf[TCP_WIN_SIZE]=0x0a; // was 1400=0x578, 2560=0xa00 suggested by Andras Tucsni to be able to receive bigger packets
    28ea:	8a e0       	ldi	r24, 0x0A	; 10
    28ec:	88 ab       	std	Y+48, r24	; 0x30
        buf[TCP_WIN_SIZE+1]=0; //
    28ee:	19 aa       	std	Y+49, r1	; 0x31
        // calculate the checksum, len=8 (start from ip.src) + TCP_HEADER_LEN_PLAIN + 4 (one option: mss)
        ck=checksum(&buf[IP_SRC_P], 8+TCP_HEADER_LEN_PLAIN+4,2);
    28f0:	42 e0       	ldi	r20, 0x02	; 2
    28f2:	60 e2       	ldi	r22, 0x20	; 32
    28f4:	70 e0       	ldi	r23, 0x00	; 0
    28f6:	ce 01       	movw	r24, r28
    28f8:	4a 96       	adiw	r24, 0x1a	; 26
    28fa:	0e 94 cc 11 	call	0x2398	; 0x2398 <checksum>
        buf[TCP_CHECKSUM_H_P]=ck>>8;
    28fe:	9a ab       	std	Y+50, r25	; 0x32
        buf[TCP_CHECKSUM_L_P]=ck& 0xff;
    2900:	8b ab       	std	Y+51, r24	; 0x33
        // add 4 for option mss:
        enc28j60PacketSend(IP_HEADER_LEN+TCP_HEADER_LEN_PLAIN+4+ETH_HEADER_LEN,buf);
    2902:	be 01       	movw	r22, r28
    2904:	8a e3       	ldi	r24, 0x3A	; 58
    2906:	90 e0       	ldi	r25, 0x00	; 0
    2908:	0e 94 06 04 	call	0x80c	; 0x80c <enc28j60PacketSend>
}
    290c:	df 91       	pop	r29
    290e:	cf 91       	pop	r28
    2910:	08 95       	ret

00002912 <www_server_reply>:
// dlen is the amount of tcp data (http data) we send in this packet
// You can use this function only immediately after make_tcp_ack_from_any
// This is because this function will NOT modify the eth/ip/tcp header except for
// length and checksum
void www_server_reply(uint8_t *buf,uint16_t dlen)
{
    2912:	0f 93       	push	r16
    2914:	1f 93       	push	r17
    2916:	cf 93       	push	r28
    2918:	df 93       	push	r29
    291a:	ec 01       	movw	r28, r24
    291c:	8b 01       	movw	r16, r22
        make_tcp_ack_from_any(buf,info_data_len,0); // send ack for http get
    291e:	60 91 07 03 	lds	r22, 0x0307
    2922:	70 91 08 03 	lds	r23, 0x0308
    2926:	40 e0       	ldi	r20, 0x00	; 0
    2928:	0e 94 b4 13 	call	0x2768	; 0x2768 <make_tcp_ack_from_any>
        // fill the header:
        // This code requires that we send only one data packet
        // because we keep no state information. We must therefore set
        // the fin here:
        buf[TCP_FLAGS_P]=TCP_FLAGS_ACK_V|TCP_FLAGS_PUSH_V|TCP_FLAGS_FIN_V;
    292c:	89 e1       	ldi	r24, 0x19	; 25
    292e:	8f a7       	std	Y+47, r24	; 0x2f
        make_tcp_ack_with_data_noflags(buf,dlen); // send data
    2930:	b8 01       	movw	r22, r16
    2932:	ce 01       	movw	r24, r28
    2934:	0e 94 f1 13 	call	0x27e2	; 0x27e2 <make_tcp_ack_with_data_noflags>
}
    2938:	df 91       	pop	r29
    293a:	cf 91       	pop	r28
    293c:	1f 91       	pop	r17
    293e:	0f 91       	pop	r16
    2940:	08 95       	ret

00002942 <fill_buf_p>:
#endif // WWW_server

#if defined (ALL_clients) || defined (GRATARP) || defined (WOL_client)
// fill buffer with a prog-mem string
void fill_buf_p(uint8_t *buf,uint16_t len, const char *progmem_str_p)
{
    2942:	dc 01       	movw	r26, r24
    2944:	fa 01       	movw	r30, r20
        while (len){
    2946:	61 15       	cp	r22, r1
    2948:	71 05       	cpc	r23, r1
    294a:	41 f0       	breq	.+16     	; 0x295c <fill_buf_p+0x1a>

#endif // WWW_server

#if defined (ALL_clients) || defined (GRATARP) || defined (WOL_client)
// fill buffer with a prog-mem string
void fill_buf_p(uint8_t *buf,uint16_t len, const char *progmem_str_p)
    294c:	68 0f       	add	r22, r24
    294e:	79 1f       	adc	r23, r25
{
        while (len){
                *buf= pgm_read_byte(progmem_str_p);
    2950:	84 91       	lpm	r24, Z
    2952:	8d 93       	st	X+, r24
                buf++;
                progmem_str_p++;
    2954:	31 96       	adiw	r30, 0x01	; 1

#if defined (ALL_clients) || defined (GRATARP) || defined (WOL_client)
// fill buffer with a prog-mem string
void fill_buf_p(uint8_t *buf,uint16_t len, const char *progmem_str_p)
{
        while (len){
    2956:	a6 17       	cp	r26, r22
    2958:	b7 07       	cpc	r27, r23
    295a:	d1 f7       	brne	.-12     	; 0x2950 <fill_buf_p+0xe>
    295c:	08 95       	ret

0000295e <client_arp_whohas>:
// make a arp request
// Note: you must have initialized the stack with 
// init_udp_or_www_server or client_ifconfig 
// before you can use this function
void client_arp_whohas(uint8_t *buf,uint8_t *ip_we_search)
{
    295e:	cf 92       	push	r12
    2960:	df 92       	push	r13
    2962:	ef 92       	push	r14
    2964:	ff 92       	push	r15
    2966:	0f 93       	push	r16
    2968:	1f 93       	push	r17
    296a:	cf 93       	push	r28
    296c:	df 93       	push	r29
    296e:	7c 01       	movw	r14, r24
    2970:	c6 2e       	mov	r12, r22
    2972:	d7 2e       	mov	r13, r23
        uint8_t i=0;
        if (ipaddr[0]==0) return; // error ipaddr not set
    2974:	80 91 02 03 	lds	r24, 0x0302
    2978:	88 23       	and	r24, r24
    297a:	09 f4       	brne	.+2      	; 0x297e <client_arp_whohas+0x20>
    297c:	45 c0       	rjmp	.+138    	; 0x2a08 <client_arp_whohas+0xaa>
    297e:	c7 01       	movw	r24, r14
    2980:	cc ef       	ldi	r28, 0xFC	; 252
    2982:	d2 e0       	ldi	r29, 0x02	; 2
#if ARP_MAC_resolver_client
// make a arp request
// Note: you must have initialized the stack with 
// init_udp_or_www_server or client_ifconfig 
// before you can use this function
void client_arp_whohas(uint8_t *buf,uint8_t *ip_we_search)
    2984:	a7 01       	movw	r20, r14
    2986:	4a 5f       	subi	r20, 0xFA	; 250
    2988:	5f 4f       	sbci	r21, 0xFF	; 255
    298a:	02 e0       	ldi	r16, 0x02	; 2
    298c:	13 e0       	ldi	r17, 0x03	; 3
    298e:	fe 01       	movw	r30, r28
{
        uint8_t i=0;
        if (ipaddr[0]==0) return; // error ipaddr not set
        //
        while(i<6){
                buf[ETH_DST_MAC +i]=0xff;
    2990:	3f ef       	ldi	r19, 0xFF	; 255
    2992:	dc 01       	movw	r26, r24
    2994:	3d 93       	st	X+, r19
    2996:	cd 01       	movw	r24, r26
                buf[ETH_SRC_MAC +i]=macaddr[i];
    2998:	21 91       	ld	r18, Z+
    299a:	da 01       	movw	r26, r20
    299c:	2d 93       	st	X+, r18
    299e:	ad 01       	movw	r20, r26
void client_arp_whohas(uint8_t *buf,uint8_t *ip_we_search)
{
        uint8_t i=0;
        if (ipaddr[0]==0) return; // error ipaddr not set
        //
        while(i<6){
    29a0:	e0 17       	cp	r30, r16
    29a2:	f1 07       	cpc	r31, r17
    29a4:	b1 f7       	brne	.-20     	; 0x2992 <client_arp_whohas+0x34>
                buf[ETH_DST_MAC +i]=0xff;
                buf[ETH_SRC_MAC +i]=macaddr[i];
                i++;
        }
        buf[ETH_TYPE_H_P] = ETHTYPE_ARP_H_V;
    29a6:	88 e0       	ldi	r24, 0x08	; 8
    29a8:	f7 01       	movw	r30, r14
    29aa:	84 87       	std	Z+12, r24	; 0x0c
        buf[ETH_TYPE_L_P] = ETHTYPE_ARP_L_V;
    29ac:	86 e0       	ldi	r24, 0x06	; 6
    29ae:	85 87       	std	Z+13, r24	; 0x0d
        fill_buf_p(&buf[ETH_ARP_P],8,arpreqhdr);
    29b0:	47 ee       	ldi	r20, 0xE7	; 231
    29b2:	54 e0       	ldi	r21, 0x04	; 4
    29b4:	68 e0       	ldi	r22, 0x08	; 8
    29b6:	70 e0       	ldi	r23, 0x00	; 0
    29b8:	c7 01       	movw	r24, r14
    29ba:	0e 96       	adiw	r24, 0x0e	; 14
    29bc:	0e 94 a1 14 	call	0x2942	; 0x2942 <fill_buf_p>
#if ARP_MAC_resolver_client
// make a arp request
// Note: you must have initialized the stack with 
// init_udp_or_www_server or client_ifconfig 
// before you can use this function
void client_arp_whohas(uint8_t *buf,uint8_t *ip_we_search)
    29c0:	d7 01       	movw	r26, r14
    29c2:	56 96       	adiw	r26, 0x16	; 22
    29c4:	f7 01       	movw	r30, r14
    29c6:	b0 96       	adiw	r30, 0x20	; 32
        buf[ETH_TYPE_H_P] = ETHTYPE_ARP_H_V;
        buf[ETH_TYPE_L_P] = ETHTYPE_ARP_L_V;
        fill_buf_p(&buf[ETH_ARP_P],8,arpreqhdr);
        i=0;
        while(i<6){
                buf[ETH_ARP_SRC_MAC_P +i]=macaddr[i];
    29c8:	89 91       	ld	r24, Y+
    29ca:	8d 93       	st	X+, r24
                buf[ETH_ARP_DST_MAC_P+i]=0;
    29cc:	11 92       	st	Z+, r1
        }
        buf[ETH_TYPE_H_P] = ETHTYPE_ARP_H_V;
        buf[ETH_TYPE_L_P] = ETHTYPE_ARP_L_V;
        fill_buf_p(&buf[ETH_ARP_P],8,arpreqhdr);
        i=0;
        while(i<6){
    29ce:	c0 17       	cp	r28, r16
    29d0:	d1 07       	cpc	r29, r17
    29d2:	d1 f7       	brne	.-12     	; 0x29c8 <client_arp_whohas+0x6a>
    29d4:	6c 2d       	mov	r22, r12
    29d6:	7d 2d       	mov	r23, r13
#if ARP_MAC_resolver_client
// make a arp request
// Note: you must have initialized the stack with 
// init_udp_or_www_server or client_ifconfig 
// before you can use this function
void client_arp_whohas(uint8_t *buf,uint8_t *ip_we_search)
    29d8:	c7 01       	movw	r24, r14
    29da:	86 96       	adiw	r24, 0x26	; 38
    29dc:	e2 e0       	ldi	r30, 0x02	; 2
    29de:	f3 e0       	ldi	r31, 0x03	; 3
    29e0:	e7 01       	movw	r28, r14
    29e2:	6c 96       	adiw	r28, 0x1c	; 28
    29e4:	26 e0       	ldi	r18, 0x06	; 6
    29e6:	33 e0       	ldi	r19, 0x03	; 3
                buf[ETH_ARP_DST_MAC_P+i]=0;
                i++;
        }
        i=0;
        while(i<4){
                buf[ETH_ARP_DST_IP_P+i]=*(ip_we_search +i);
    29e8:	db 01       	movw	r26, r22
    29ea:	4d 91       	ld	r20, X+
    29ec:	bd 01       	movw	r22, r26
    29ee:	dc 01       	movw	r26, r24
    29f0:	4d 93       	st	X+, r20
    29f2:	cd 01       	movw	r24, r26
                buf[ETH_ARP_SRC_IP_P+i]=ipaddr[i];
    29f4:	41 91       	ld	r20, Z+
    29f6:	49 93       	st	Y+, r20
                buf[ETH_ARP_SRC_MAC_P +i]=macaddr[i];
                buf[ETH_ARP_DST_MAC_P+i]=0;
                i++;
        }
        i=0;
        while(i<4){
    29f8:	e2 17       	cp	r30, r18
    29fa:	f3 07       	cpc	r31, r19
    29fc:	a9 f7       	brne	.-22     	; 0x29e8 <client_arp_whohas+0x8a>
                buf[ETH_ARP_DST_IP_P+i]=*(ip_we_search +i);
                buf[ETH_ARP_SRC_IP_P+i]=ipaddr[i];
                i++;
        }
        // 0x2a=42=len of packet
        enc28j60PacketSend(0x2a,buf);
    29fe:	b7 01       	movw	r22, r14
    2a00:	8a e2       	ldi	r24, 0x2A	; 42
    2a02:	90 e0       	ldi	r25, 0x00	; 0
    2a04:	0e 94 06 04 	call	0x80c	; 0x80c <enc28j60PacketSend>
}
    2a08:	df 91       	pop	r29
    2a0a:	cf 91       	pop	r28
    2a0c:	1f 91       	pop	r17
    2a0e:	0f 91       	pop	r16
    2a10:	ff 90       	pop	r15
    2a12:	ef 90       	pop	r14
    2a14:	df 90       	pop	r13
    2a16:	cf 90       	pop	r12
    2a18:	08 95       	ret

00002a1a <packetloop_arp_icmp_tcp>:


// return 0 to just continue in the packet loop and return the position 
// of the tcp data if there is tcp data part
uint16_t packetloop_arp_icmp_tcp(uint8_t *buf,uint16_t plen)
{
    2a1a:	ff 92       	push	r15
    2a1c:	0f 93       	push	r16
    2a1e:	1f 93       	push	r17
    2a20:	cf 93       	push	r28
    2a22:	df 93       	push	r29
    2a24:	8c 01       	movw	r16, r24
    2a26:	eb 01       	movw	r28, r22
        uint16_t save_len;
#endif
#ifdef ARP_MAC_resolver_client
        //plen will be unequal to zero if there is a valid 
        // packet (without crc error):
        if(plen==0){
    2a28:	20 97       	sbiw	r28, 0x00	; 0
    2a2a:	a9 f5       	brne	.+106    	; 0x2a96 <packetloop_arp_icmp_tcp+0x7c>
                if (arpip_state == (WGW_ACCEPT_ARP_REPLY|WGW_INITIAL_ARP) && arp_delaycnt==0 ){
    2a2c:	80 91 09 03 	lds	r24, 0x0309
    2a30:	89 30       	cpi	r24, 0x09	; 9
    2a32:	79 f4       	brne	.+30     	; 0x2a52 <packetloop_arp_icmp_tcp+0x38>
    2a34:	80 91 7f 00 	lds	r24, 0x007F
    2a38:	90 91 80 00 	lds	r25, 0x0080
    2a3c:	89 2b       	or	r24, r25
    2a3e:	f9 f4       	brne	.+62     	; 0x2a7e <packetloop_arp_icmp_tcp+0x64>
                        // arp_delaycnt has wrapped no arp reply yet
                        if (enc28j60linkup()) client_arp_whohas(buf,arpip);
    2a40:	0e 94 fd 03 	call	0x7fa	; 0x7fa <enc28j60linkup>
    2a44:	88 23       	and	r24, r24
    2a46:	29 f0       	breq	.+10     	; 0x2a52 <packetloop_arp_icmp_tcp+0x38>
    2a48:	6b e0       	ldi	r22, 0x0B	; 11
    2a4a:	73 e0       	ldi	r23, 0x03	; 3
    2a4c:	c8 01       	movw	r24, r16
    2a4e:	0e 94 af 14 	call	0x295e	; 0x295e <client_arp_whohas>
                }
                if (arpip_state == WGW_INITIAL_ARP && enc28j60linkup()){
    2a52:	80 91 09 03 	lds	r24, 0x0309
    2a56:	81 30       	cpi	r24, 0x01	; 1
    2a58:	91 f4       	brne	.+36     	; 0x2a7e <packetloop_arp_icmp_tcp+0x64>
    2a5a:	0e 94 fd 03 	call	0x7fa	; 0x7fa <enc28j60linkup>
    2a5e:	88 23       	and	r24, r24
    2a60:	71 f0       	breq	.+28     	; 0x2a7e <packetloop_arp_icmp_tcp+0x64>
                        client_arp_whohas(buf,arpip);
    2a62:	6b e0       	ldi	r22, 0x0B	; 11
    2a64:	73 e0       	ldi	r23, 0x03	; 3
    2a66:	c8 01       	movw	r24, r16
    2a68:	0e 94 af 14 	call	0x295e	; 0x295e <client_arp_whohas>
                        arpip_state|=WGW_ACCEPT_ARP_REPLY; // WGW_INITIAL_ARP and WGW_ACCEPT_ARP_REPLY set
    2a6c:	80 91 09 03 	lds	r24, 0x0309
    2a70:	88 60       	ori	r24, 0x08	; 8
    2a72:	80 93 09 03 	sts	0x0309, r24
                        arp_delaycnt=0; // this is like a timer, not so precise but good enough, it wraps in about 2 sec
    2a76:	10 92 80 00 	sts	0x0080, r1
    2a7a:	10 92 7f 00 	sts	0x007F, r1
                }
                arp_delaycnt++;
    2a7e:	80 91 7f 00 	lds	r24, 0x007F
    2a82:	90 91 80 00 	lds	r25, 0x0080
    2a86:	01 96       	adiw	r24, 0x01	; 1
    2a88:	90 93 80 00 	sts	0x0080, r25
    2a8c:	80 93 7f 00 	sts	0x007F, r24
                        // way we get it back in every message that comes
                        // from the server:
                        tcp_client_syn(buf,((tcp_fd<<5) | (0x1f & tcpclient_src_port_l)),tcp_client_port);
                }
#endif
                return(0);
    2a90:	20 e0       	ldi	r18, 0x00	; 0
    2a92:	30 e0       	ldi	r19, 0x00	; 0
    2a94:	b5 c0       	rjmp	.+362    	; 0x2c00 <packetloop_arp_icmp_tcp+0x1e6>
        }
#endif // ARP_MAC_resolver_client
        // arp is broadcast if unknown but a host may also
        // verify the mac address by sending it to 
        // a unicast address.
        if(eth_type_is_arp_and_my_ip(buf,plen)){
    2a96:	0e 94 47 12 	call	0x248e	; 0x248e <eth_type_is_arp_and_my_ip>
    2a9a:	88 23       	and	r24, r24
    2a9c:	79 f1       	breq	.+94     	; 0x2afc <packetloop_arp_icmp_tcp+0xe2>
                if (buf[ETH_ARP_OPCODE_L_P]==ETH_ARP_OPCODE_REQ_L_V){
    2a9e:	f8 01       	movw	r30, r16
    2aa0:	85 89       	ldd	r24, Z+21	; 0x15
    2aa2:	81 30       	cpi	r24, 0x01	; 1
    2aa4:	19 f4       	brne	.+6      	; 0x2aac <packetloop_arp_icmp_tcp+0x92>
                        // is it an arp request 
                        make_arp_answer_from_request(buf);
    2aa6:	c8 01       	movw	r24, r16
    2aa8:	0e 94 0e 13 	call	0x261c	; 0x261c <make_arp_answer_from_request>
                }
#ifdef ARP_MAC_resolver_client
                if ((arpip_state & WGW_ACCEPT_ARP_REPLY) && (buf[ETH_ARP_OPCODE_L_P]==ETH_ARP_OPCODE_REPLY_L_V)){
    2aac:	80 91 09 03 	lds	r24, 0x0309
    2ab0:	83 ff       	sbrs	r24, 3
    2ab2:	86 c0       	rjmp	.+268    	; 0x2bc0 <packetloop_arp_icmp_tcp+0x1a6>
    2ab4:	f8 01       	movw	r30, r16
    2ab6:	85 89       	ldd	r24, Z+21	; 0x15
    2ab8:	82 30       	cpi	r24, 0x02	; 2
    2aba:	09 f0       	breq	.+2      	; 0x2abe <packetloop_arp_icmp_tcp+0xa4>
    2abc:	84 c0       	rjmp	.+264    	; 0x2bc6 <packetloop_arp_icmp_tcp+0x1ac>
                        // is it an arp reply 
                        if (memcmp(&buf[ETH_ARP_SRC_IP_P],arpip,4)!=0) return(0); // not an arp reply for the IP we were searching           
    2abe:	44 e0       	ldi	r20, 0x04	; 4
    2ac0:	50 e0       	ldi	r21, 0x00	; 0
    2ac2:	6b e0       	ldi	r22, 0x0B	; 11
    2ac4:	73 e0       	ldi	r23, 0x03	; 3
    2ac6:	c8 01       	movw	r24, r16
    2ac8:	4c 96       	adiw	r24, 0x1c	; 28
    2aca:	0e 94 5a 18 	call	0x30b4	; 0x30b4 <memcmp>
    2ace:	28 2f       	mov	r18, r24
    2ad0:	39 2f       	mov	r19, r25
    2ad2:	23 2b       	or	r18, r19
    2ad4:	09 f0       	breq	.+2      	; 0x2ad8 <packetloop_arp_icmp_tcp+0xbe>
    2ad6:	7a c0       	rjmp	.+244    	; 0x2bcc <packetloop_arp_icmp_tcp+0x1b2>
                        (*client_arp_result_callback)(arpip,arp_reference_number,buf+ETH_ARP_SRC_MAC_P);
    2ad8:	a8 01       	movw	r20, r16
    2ada:	4a 5e       	subi	r20, 0xEA	; 234
    2adc:	5f 4f       	sbci	r21, 0xFF	; 255
    2ade:	e0 91 43 06 	lds	r30, 0x0643
    2ae2:	f0 91 44 06 	lds	r31, 0x0644
    2ae6:	60 91 0a 03 	lds	r22, 0x030A
    2aea:	8b e0       	ldi	r24, 0x0B	; 11
    2aec:	93 e0       	ldi	r25, 0x03	; 3
    2aee:	09 95       	icall
                        arpip_state=WGW_HAVE_MAC;
    2af0:	82 e0       	ldi	r24, 0x02	; 2
    2af2:	80 93 09 03 	sts	0x0309, r24
                }
#endif // ARP_MAC_resolver_client
                return(0);
    2af6:	20 e0       	ldi	r18, 0x00	; 0
    2af8:	30 e0       	ldi	r19, 0x00	; 0
    2afa:	82 c0       	rjmp	.+260    	; 0x2c00 <packetloop_arp_icmp_tcp+0x1e6>

        }
        // check if ip packets are for us:
        if(eth_type_is_ip_and_my_ip(buf,plen)==0){
    2afc:	be 01       	movw	r22, r28
    2afe:	c8 01       	movw	r24, r16
    2b00:	0e 94 74 12 	call	0x24e8	; 0x24e8 <eth_type_is_ip_and_my_ip>
    2b04:	88 23       	and	r24, r24
    2b06:	09 f4       	brne	.+2      	; 0x2b0a <packetloop_arp_icmp_tcp+0xf0>
    2b08:	64 c0       	rjmp	.+200    	; 0x2bd2 <packetloop_arp_icmp_tcp+0x1b8>
                return(0);
        }
        if(buf[IP_PROTO_P]==IP_PROTO_ICMP_V && buf[ICMP_TYPE_P]==ICMP_TYPE_ECHOREQUEST_V){
    2b0a:	f8 01       	movw	r30, r16
    2b0c:	87 89       	ldd	r24, Z+23	; 0x17
    2b0e:	81 30       	cpi	r24, 0x01	; 1
    2b10:	a1 f4       	brne	.+40     	; 0x2b3a <packetloop_arp_icmp_tcp+0x120>
    2b12:	82 a1       	ldd	r24, Z+34	; 0x22
    2b14:	88 30       	cpi	r24, 0x08	; 8
    2b16:	09 f0       	breq	.+2      	; 0x2b1a <packetloop_arp_icmp_tcp+0x100>
    2b18:	5f c0       	rjmp	.+190    	; 0x2bd8 <packetloop_arp_icmp_tcp+0x1be>
                if (icmp_callback){
    2b1a:	e0 91 0f 03 	lds	r30, 0x030F
    2b1e:	f0 91 10 03 	lds	r31, 0x0310
    2b22:	30 97       	sbiw	r30, 0x00	; 0
    2b24:	19 f0       	breq	.+6      	; 0x2b2c <packetloop_arp_icmp_tcp+0x112>
                        (*icmp_callback)(&(buf[IP_SRC_P]));
    2b26:	c8 01       	movw	r24, r16
    2b28:	4a 96       	adiw	r24, 0x1a	; 26
    2b2a:	09 95       	icall
                }
                // a ping packet, let's send pong
                make_echo_reply_from_request(buf,plen);
    2b2c:	be 01       	movw	r22, r28
    2b2e:	c8 01       	movw	r24, r16
    2b30:	0e 94 40 13 	call	0x2680	; 0x2680 <make_echo_reply_from_request>
                return(0);
    2b34:	20 e0       	ldi	r18, 0x00	; 0
    2b36:	30 e0       	ldi	r19, 0x00	; 0
    2b38:	63 c0       	rjmp	.+198    	; 0x2c00 <packetloop_arp_icmp_tcp+0x1e6>
        }
        // this is an important check to avoid working on the wrong packets:
        if (plen<54 || buf[IP_PROTO_P]!=IP_PROTO_TCP_V ){
    2b3a:	c6 33       	cpi	r28, 0x36	; 54
    2b3c:	d1 05       	cpc	r29, r1
    2b3e:	08 f4       	brcc	.+2      	; 0x2b42 <packetloop_arp_icmp_tcp+0x128>
    2b40:	4e c0       	rjmp	.+156    	; 0x2bde <packetloop_arp_icmp_tcp+0x1c4>
    2b42:	86 30       	cpi	r24, 0x06	; 6
    2b44:	09 f0       	breq	.+2      	; 0x2b48 <packetloop_arp_icmp_tcp+0x12e>
    2b46:	4e c0       	rjmp	.+156    	; 0x2be4 <packetloop_arp_icmp_tcp+0x1ca>
        }
#endif // TCP_client
        //
#ifdef WWW_server
        // tcp port web server start
        if (buf[TCP_DST_PORT_H_P]==wwwport_h && buf[TCP_DST_PORT_L_P]==wwwport_l){
    2b48:	f8 01       	movw	r30, r16
    2b4a:	94 a1       	ldd	r25, Z+36	; 0x24
    2b4c:	80 91 06 03 	lds	r24, 0x0306
    2b50:	98 13       	cpse	r25, r24
    2b52:	4b c0       	rjmp	.+150    	; 0x2bea <packetloop_arp_icmp_tcp+0x1d0>
    2b54:	95 a1       	ldd	r25, Z+37	; 0x25
    2b56:	80 91 7d 00 	lds	r24, 0x007D
    2b5a:	98 13       	cpse	r25, r24
    2b5c:	49 c0       	rjmp	.+146    	; 0x2bf0 <packetloop_arp_icmp_tcp+0x1d6>
                if (buf[TCP_FLAGS_P] & TCP_FLAGS_SYN_V){
    2b5e:	f7 a4       	ldd	r15, Z+47	; 0x2f
    2b60:	f1 fe       	sbrs	r15, 1
    2b62:	06 c0       	rjmp	.+12     	; 0x2b70 <packetloop_arp_icmp_tcp+0x156>
                        make_tcp_synack_from_syn(buf);
    2b64:	c8 01       	movw	r24, r16
    2b66:	0e 94 50 14 	call	0x28a0	; 0x28a0 <make_tcp_synack_from_syn>
                        // make_tcp_synack_from_syn does already send the syn,ack
                        return(0);
    2b6a:	20 e0       	ldi	r18, 0x00	; 0
    2b6c:	30 e0       	ldi	r19, 0x00	; 0
    2b6e:	48 c0       	rjmp	.+144    	; 0x2c00 <packetloop_arp_icmp_tcp+0x1e6>
                }
                if (buf[TCP_FLAGS_P] & TCP_FLAGS_ACK_V){
    2b70:	f4 fe       	sbrs	r15, 4
    2b72:	41 c0       	rjmp	.+130    	; 0x2bf6 <packetloop_arp_icmp_tcp+0x1dc>
                        info_data_len=get_tcp_data_len(buf);
    2b74:	c8 01       	movw	r24, r16
    2b76:	0e 94 5d 13 	call	0x26ba	; 0x26ba <get_tcp_data_len>
    2b7a:	90 93 08 03 	sts	0x0308, r25
    2b7e:	80 93 07 03 	sts	0x0307, r24
                        // we can possibly have no data, just ack:
                        // Here we misuse plen for something else to save a variable.
                        // plen is now the position of start of the tcp user data.
                        if (info_data_len==0){
    2b82:	89 2b       	or	r24, r25
    2b84:	59 f4       	brne	.+22     	; 0x2b9c <packetloop_arp_icmp_tcp+0x182>
                                if (buf[TCP_FLAGS_P] & TCP_FLAGS_FIN_V){
    2b86:	f0 fe       	sbrs	r15, 0
    2b88:	39 c0       	rjmp	.+114    	; 0x2bfc <packetloop_arp_icmp_tcp+0x1e2>
                                        // finack, answer with ack
                                        make_tcp_ack_from_any(buf,0,0);
    2b8a:	40 e0       	ldi	r20, 0x00	; 0
    2b8c:	60 e0       	ldi	r22, 0x00	; 0
    2b8e:	70 e0       	ldi	r23, 0x00	; 0
    2b90:	c8 01       	movw	r24, r16
    2b92:	0e 94 b4 13 	call	0x2768	; 0x2768 <make_tcp_ack_from_any>
                                }
                                // just an ack with no data, wait for next packet
                                return(0);
    2b96:	20 e0       	ldi	r18, 0x00	; 0
    2b98:	30 e0       	ldi	r19, 0x00	; 0
    2b9a:	32 c0       	rjmp	.+100    	; 0x2c00 <packetloop_arp_icmp_tcp+0x1e6>
                        }
                        // Here we misuse len for something else to save a variable
                        len=TCP_DATA_START; // TCP_DATA_START is a formula
    2b9c:	f8 01       	movw	r30, r16
    2b9e:	26 a5       	ldd	r18, Z+46	; 0x2e
    2ba0:	22 95       	swap	r18
    2ba2:	2f 70       	andi	r18, 0x0F	; 15
    2ba4:	30 e0       	ldi	r19, 0x00	; 0
    2ba6:	22 0f       	add	r18, r18
    2ba8:	33 1f       	adc	r19, r19
    2baa:	22 0f       	add	r18, r18
    2bac:	33 1f       	adc	r19, r19
    2bae:	2e 5d       	subi	r18, 0xDE	; 222
    2bb0:	3f 4f       	sbci	r19, 0xFF	; 255
                        // check for data corruption
                        if (len>plen-8){
    2bb2:	28 97       	sbiw	r28, 0x08	; 8
    2bb4:	c2 17       	cp	r28, r18
    2bb6:	d3 07       	cpc	r29, r19
    2bb8:	18 f5       	brcc	.+70     	; 0x2c00 <packetloop_arp_icmp_tcp+0x1e6>
                                return(0);
    2bba:	20 e0       	ldi	r18, 0x00	; 0
    2bbc:	30 e0       	ldi	r19, 0x00	; 0
    2bbe:	20 c0       	rjmp	.+64     	; 0x2c00 <packetloop_arp_icmp_tcp+0x1e6>
                        if (memcmp(&buf[ETH_ARP_SRC_IP_P],arpip,4)!=0) return(0); // not an arp reply for the IP we were searching           
                        (*client_arp_result_callback)(arpip,arp_reference_number,buf+ETH_ARP_SRC_MAC_P);
                        arpip_state=WGW_HAVE_MAC;
                }
#endif // ARP_MAC_resolver_client
                return(0);
    2bc0:	20 e0       	ldi	r18, 0x00	; 0
    2bc2:	30 e0       	ldi	r19, 0x00	; 0
    2bc4:	1d c0       	rjmp	.+58     	; 0x2c00 <packetloop_arp_icmp_tcp+0x1e6>
    2bc6:	20 e0       	ldi	r18, 0x00	; 0
    2bc8:	30 e0       	ldi	r19, 0x00	; 0
    2bca:	1a c0       	rjmp	.+52     	; 0x2c00 <packetloop_arp_icmp_tcp+0x1e6>
                        make_arp_answer_from_request(buf);
                }
#ifdef ARP_MAC_resolver_client
                if ((arpip_state & WGW_ACCEPT_ARP_REPLY) && (buf[ETH_ARP_OPCODE_L_P]==ETH_ARP_OPCODE_REPLY_L_V)){
                        // is it an arp reply 
                        if (memcmp(&buf[ETH_ARP_SRC_IP_P],arpip,4)!=0) return(0); // not an arp reply for the IP we were searching           
    2bcc:	20 e0       	ldi	r18, 0x00	; 0
    2bce:	30 e0       	ldi	r19, 0x00	; 0
    2bd0:	17 c0       	rjmp	.+46     	; 0x2c00 <packetloop_arp_icmp_tcp+0x1e6>
                return(0);

        }
        // check if ip packets are for us:
        if(eth_type_is_ip_and_my_ip(buf,plen)==0){
                return(0);
    2bd2:	20 e0       	ldi	r18, 0x00	; 0
    2bd4:	30 e0       	ldi	r19, 0x00	; 0
    2bd6:	14 c0       	rjmp	.+40     	; 0x2c00 <packetloop_arp_icmp_tcp+0x1e6>
                return(0);
        }
        // this is an important check to avoid working on the wrong packets:
        if (plen<54 || buf[IP_PROTO_P]!=IP_PROTO_TCP_V ){
                // smaller than the smallest TCP packet (TCP packet with no options section) or not tcp port
                return(0);
    2bd8:	20 e0       	ldi	r18, 0x00	; 0
    2bda:	30 e0       	ldi	r19, 0x00	; 0
    2bdc:	11 c0       	rjmp	.+34     	; 0x2c00 <packetloop_arp_icmp_tcp+0x1e6>
    2bde:	20 e0       	ldi	r18, 0x00	; 0
    2be0:	30 e0       	ldi	r19, 0x00	; 0
    2be2:	0e c0       	rjmp	.+28     	; 0x2c00 <packetloop_arp_icmp_tcp+0x1e6>
    2be4:	20 e0       	ldi	r18, 0x00	; 0
    2be6:	30 e0       	ldi	r19, 0x00	; 0
    2be8:	0b c0       	rjmp	.+22     	; 0x2c00 <packetloop_arp_icmp_tcp+0x1e6>
                        }
                        return(len);
                }
        }
#endif // WWW_server
        return(0);
    2bea:	20 e0       	ldi	r18, 0x00	; 0
    2bec:	30 e0       	ldi	r19, 0x00	; 0
    2bee:	08 c0       	rjmp	.+16     	; 0x2c00 <packetloop_arp_icmp_tcp+0x1e6>
    2bf0:	20 e0       	ldi	r18, 0x00	; 0
    2bf2:	30 e0       	ldi	r19, 0x00	; 0
    2bf4:	05 c0       	rjmp	.+10     	; 0x2c00 <packetloop_arp_icmp_tcp+0x1e6>
    2bf6:	20 e0       	ldi	r18, 0x00	; 0
    2bf8:	30 e0       	ldi	r19, 0x00	; 0
    2bfa:	02 c0       	rjmp	.+4      	; 0x2c00 <packetloop_arp_icmp_tcp+0x1e6>
                                if (buf[TCP_FLAGS_P] & TCP_FLAGS_FIN_V){
                                        // finack, answer with ack
                                        make_tcp_ack_from_any(buf,0,0);
                                }
                                // just an ack with no data, wait for next packet
                                return(0);
    2bfc:	20 e0       	ldi	r18, 0x00	; 0
    2bfe:	30 e0       	ldi	r19, 0x00	; 0
                        return(len);
                }
        }
#endif // WWW_server
        return(0);
}
    2c00:	82 2f       	mov	r24, r18
    2c02:	93 2f       	mov	r25, r19
    2c04:	df 91       	pop	r29
    2c06:	cf 91       	pop	r28
    2c08:	1f 91       	pop	r17
    2c0a:	0f 91       	pop	r16
    2c0c:	ff 90       	pop	r15
    2c0e:	08 95       	ret

00002c10 <SD_sendCommand>:
//Arguments	: unsigned char (8-bit command value)
// 			  & unsigned long (32-bit command argument)
//return	: unsigned char; response byte
//******************************************************************
unsigned char SD_sendCommand(unsigned char cmd, unsigned long arg)
{
    2c10:	cf 92       	push	r12
    2c12:	df 92       	push	r13
    2c14:	ef 92       	push	r14
    2c16:	ff 92       	push	r15
    2c18:	cf 93       	push	r28
    2c1a:	c8 2f       	mov	r28, r24
    2c1c:	6a 01       	movw	r12, r20
    2c1e:	7b 01       	movw	r14, r22
//SD card accepts byte address while SDHC accepts block address in multiples of 512
//so, if it's SD card we need to convert block address into corresponding byte address by 
//multipying it with 512. which is equivalent to shifting it left 9 times
//following 'if' loop does that

if(SDHC_flag == 0)		
    2c20:	80 91 3c 05 	lds	r24, 0x053C
    2c24:	81 11       	cpse	r24, r1
    2c26:	15 c0       	rjmp	.+42     	; 0x2c52 <SD_sendCommand+0x42>
if(cmd == READ_SINGLE_BLOCK     ||
    2c28:	8c 2f       	mov	r24, r28
    2c2a:	81 51       	subi	r24, 0x11	; 17
    2c2c:	82 30       	cpi	r24, 0x02	; 2
    2c2e:	40 f0       	brcs	.+16     	; 0x2c40 <SD_sendCommand+0x30>
   cmd == READ_MULTIPLE_BLOCKS  ||
    2c30:	c8 31       	cpi	r28, 0x18	; 24
    2c32:	31 f0       	breq	.+12     	; 0x2c40 <SD_sendCommand+0x30>
   cmd == WRITE_SINGLE_BLOCK    ||
    2c34:	c9 31       	cpi	r28, 0x19	; 25
    2c36:	21 f0       	breq	.+8      	; 0x2c40 <SD_sendCommand+0x30>
   cmd == WRITE_MULTIPLE_BLOCKS ||
    2c38:	c0 32       	cpi	r28, 0x20	; 32
    2c3a:	11 f0       	breq	.+4      	; 0x2c40 <SD_sendCommand+0x30>
   cmd == ERASE_BLOCK_START_ADDR|| 
    2c3c:	c1 32       	cpi	r28, 0x21	; 33
    2c3e:	49 f4       	brne	.+18     	; 0x2c52 <SD_sendCommand+0x42>
   cmd == ERASE_BLOCK_END_ADDR ) 
   {
     arg = arg << 9;
    2c40:	0b 2e       	mov	r0, r27
    2c42:	b9 e0       	ldi	r27, 0x09	; 9
    2c44:	cc 0c       	add	r12, r12
    2c46:	dd 1c       	adc	r13, r13
    2c48:	ee 1c       	adc	r14, r14
    2c4a:	ff 1c       	adc	r15, r15
    2c4c:	ba 95       	dec	r27
    2c4e:	d1 f7       	brne	.-12     	; 0x2c44 <SD_sendCommand+0x34>
    2c50:	b0 2d       	mov	r27, r0
   }	   

SD_CS_ASSERT;
    2c52:	c0 98       	cbi	0x18, 0	; 24

SPI_transmit(cmd | 0x40); //send command, first two bits always '01'
    2c54:	8c 2f       	mov	r24, r28
    2c56:	80 64       	ori	r24, 0x40	; 64
    2c58:	0e 94 9f 17 	call	0x2f3e	; 0x2f3e <SPI_transmit>
SPI_transmit(arg>>24);
    2c5c:	8f 2d       	mov	r24, r15
    2c5e:	0e 94 9f 17 	call	0x2f3e	; 0x2f3e <SPI_transmit>
SPI_transmit(arg>>16);
    2c62:	8e 2d       	mov	r24, r14
    2c64:	0e 94 9f 17 	call	0x2f3e	; 0x2f3e <SPI_transmit>
SPI_transmit(arg>>8);
    2c68:	8d 2d       	mov	r24, r13
    2c6a:	0e 94 9f 17 	call	0x2f3e	; 0x2f3e <SPI_transmit>
SPI_transmit(arg);
    2c6e:	8c 2d       	mov	r24, r12
    2c70:	0e 94 9f 17 	call	0x2f3e	; 0x2f3e <SPI_transmit>

if(cmd == SEND_IF_COND)	 //it is compulsory to send correct CRC for CMD8 (CRC=0x87) & CMD0 (CRC=0x95)
    2c74:	c8 30       	cpi	r28, 0x08	; 8
    2c76:	21 f4       	brne	.+8      	; 0x2c80 <SD_sendCommand+0x70>
  SPI_transmit(0x87);    //for remaining commands, CRC is ignored in SPI mode
    2c78:	87 e8       	ldi	r24, 0x87	; 135
    2c7a:	0e 94 9f 17 	call	0x2f3e	; 0x2f3e <SPI_transmit>
    2c7e:	07 c0       	rjmp	.+14     	; 0x2c8e <SD_sendCommand+0x7e>
else 
  SPI_transmit(0x95); 
    2c80:	85 e9       	ldi	r24, 0x95	; 149
    2c82:	0e 94 9f 17 	call	0x2f3e	; 0x2f3e <SPI_transmit>
    2c86:	03 c0       	rjmp	.+6      	; 0x2c8e <SD_sendCommand+0x7e>
    2c88:	fa 94       	dec	r15

while((response = SPI_receive()) == 0xff) //wait response
   if(retry++ > 0xfe) break; //time out error
    2c8a:	11 f4       	brne	.+4      	; 0x2c90 <SD_sendCommand+0x80>
    2c8c:	1b c0       	rjmp	.+54     	; 0x2cc4 <SD_sendCommand+0xb4>
//Arguments	: unsigned char (8-bit command value)
// 			  & unsigned long (32-bit command argument)
//return	: unsigned char; response byte
//******************************************************************
unsigned char SD_sendCommand(unsigned char cmd, unsigned long arg)
{
    2c8e:	f1 2c       	mov	r15, r1
if(cmd == SEND_IF_COND)	 //it is compulsory to send correct CRC for CMD8 (CRC=0x87) & CMD0 (CRC=0x95)
  SPI_transmit(0x87);    //for remaining commands, CRC is ignored in SPI mode
else 
  SPI_transmit(0x95); 

while((response = SPI_receive()) == 0xff) //wait response
    2c90:	0e 94 ad 17 	call	0x2f5a	; 0x2f5a <SPI_receive>
    2c94:	8f 3f       	cpi	r24, 0xFF	; 255
    2c96:	c1 f3       	breq	.-16     	; 0x2c88 <SD_sendCommand+0x78>
    2c98:	f8 2e       	mov	r15, r24
   if(retry++ > 0xfe) break; //time out error

if(response == 0x00 && cmd == 58)  //checking response of CMD58
    2c9a:	81 11       	cpse	r24, r1
    2c9c:	15 c0       	rjmp	.+42     	; 0x2cc8 <SD_sendCommand+0xb8>
    2c9e:	ca 33       	cpi	r28, 0x3A	; 58
    2ca0:	a1 f4       	brne	.+40     	; 0x2cca <SD_sendCommand+0xba>
{
  status = SPI_receive() & 0x40;     //first byte of the OCR register (bit 31:24)
    2ca2:	0e 94 ad 17 	call	0x2f5a	; 0x2f5a <SPI_receive>
  if(status == 0x40) SDHC_flag = 1;  //we need it to verify SDHC card
    2ca6:	86 ff       	sbrs	r24, 6
    2ca8:	04 c0       	rjmp	.+8      	; 0x2cb2 <SD_sendCommand+0xa2>
    2caa:	81 e0       	ldi	r24, 0x01	; 1
    2cac:	80 93 3c 05 	sts	0x053C, r24
    2cb0:	02 c0       	rjmp	.+4      	; 0x2cb6 <SD_sendCommand+0xa6>
  else SDHC_flag = 0;
    2cb2:	10 92 3c 05 	sts	0x053C, r1

  SPI_receive(); //remaining 3 bytes of the OCR register are ignored here
    2cb6:	0e 94 ad 17 	call	0x2f5a	; 0x2f5a <SPI_receive>
  SPI_receive(); //one can use these bytes to check power supply limits of SD
    2cba:	0e 94 ad 17 	call	0x2f5a	; 0x2f5a <SPI_receive>
  SPI_receive(); 
    2cbe:	0e 94 ad 17 	call	0x2f5a	; 0x2f5a <SPI_receive>
    2cc2:	03 c0       	rjmp	.+6      	; 0x2cca <SD_sendCommand+0xba>
if(cmd == SEND_IF_COND)	 //it is compulsory to send correct CRC for CMD8 (CRC=0x87) & CMD0 (CRC=0x95)
  SPI_transmit(0x87);    //for remaining commands, CRC is ignored in SPI mode
else 
  SPI_transmit(0x95); 

while((response = SPI_receive()) == 0xff) //wait response
    2cc4:	f8 2e       	mov	r15, r24
    2cc6:	01 c0       	rjmp	.+2      	; 0x2cca <SD_sendCommand+0xba>
    2cc8:	f8 2e       	mov	r15, r24
  SPI_receive(); //remaining 3 bytes of the OCR register are ignored here
  SPI_receive(); //one can use these bytes to check power supply limits of SD
  SPI_receive(); 
}

SPI_receive(); //extra 8 CLK
    2cca:	0e 94 ad 17 	call	0x2f5a	; 0x2f5a <SPI_receive>
SD_CS_DEASSERT;
    2cce:	c0 9a       	sbi	0x18, 0	; 24

return response; //return state
}
    2cd0:	8f 2d       	mov	r24, r15
    2cd2:	cf 91       	pop	r28
    2cd4:	ff 90       	pop	r15
    2cd6:	ef 90       	pop	r14
    2cd8:	df 90       	pop	r13
    2cda:	cf 90       	pop	r12
    2cdc:	08 95       	ret

00002cde <SD_init>:
//Arguments	: none
//return	: unsigned char; will be 0 if no error,
// 			  otherwise the response byte will be sent
//******************************************************************
unsigned char SD_init(void)
{
    2cde:	1f 93       	push	r17
    2ce0:	cf 93       	push	r28
    2ce2:	df 93       	push	r29
    2ce4:	ca e0       	ldi	r28, 0x0A	; 10
unsigned char i, response, SD_version;
unsigned int retry=0 ;

 for(i=0;i<10;i++)
      SPI_transmit(0xff);   //80 clock pulses spent before sending the first command
    2ce6:	8f ef       	ldi	r24, 0xFF	; 255
    2ce8:	0e 94 9f 17 	call	0x2f3e	; 0x2f3e <SPI_transmit>
    2cec:	c1 50       	subi	r28, 0x01	; 1
unsigned char SD_init(void)
{
unsigned char i, response, SD_version;
unsigned int retry=0 ;

 for(i=0;i<10;i++)
    2cee:	d9 f7       	brne	.-10     	; 0x2ce6 <SD_init+0x8>
      SPI_transmit(0xff);   //80 clock pulses spent before sending the first command

SD_CS_ASSERT;
    2cf0:	c0 98       	cbi	0x18, 0	; 24
do
{
  
   response = SD_sendCommand(GO_IDLE_STATE, 0); //send 'reset & go idle' command
    2cf2:	40 e0       	ldi	r20, 0x00	; 0
    2cf4:	50 e0       	ldi	r21, 0x00	; 0
    2cf6:	ba 01       	movw	r22, r20
    2cf8:	80 e0       	ldi	r24, 0x00	; 0
    2cfa:	0e 94 08 16 	call	0x2c10	; 0x2c10 <SD_sendCommand>
    2cfe:	c0 e2       	ldi	r28, 0x20	; 32
    2d00:	d0 e0       	ldi	r29, 0x00	; 0
    2d02:	09 c0       	rjmp	.+18     	; 0x2d16 <SD_init+0x38>
    2d04:	40 e0       	ldi	r20, 0x00	; 0
    2d06:	50 e0       	ldi	r21, 0x00	; 0
    2d08:	ba 01       	movw	r22, r20
    2d0a:	80 e0       	ldi	r24, 0x00	; 0
    2d0c:	0e 94 08 16 	call	0x2c10	; 0x2c10 <SD_sendCommand>
    2d10:	21 97       	sbiw	r28, 0x01	; 1
   retry++;
   if(retry>0x20) 
    2d12:	09 f4       	brne	.+2      	; 0x2d16 <SD_init+0x38>
    2d14:	73 c0       	rjmp	.+230    	; 0x2dfc <SD_init+0x11e>
   	  return 1;   //time out, card not detected
   
} while(response != 0x01);
    2d16:	81 30       	cpi	r24, 0x01	; 1
    2d18:	a9 f7       	brne	.-22     	; 0x2d04 <SD_init+0x26>

SD_CS_DEASSERT;
    2d1a:	c0 9a       	sbi	0x18, 0	; 24
SPI_transmit (0xff);
    2d1c:	8f ef       	ldi	r24, 0xFF	; 255
    2d1e:	0e 94 9f 17 	call	0x2f3e	; 0x2f3e <SPI_transmit>
SPI_transmit (0xff);
    2d22:	8f ef       	ldi	r24, 0xFF	; 255
    2d24:	0e 94 9f 17 	call	0x2f3e	; 0x2f3e <SPI_transmit>

SD_version = 2; //default set to SD compliance with ver2.x; 
				//this may change after checking the next command
do
{
response = SD_sendCommand(SEND_IF_COND,0x000001AA); //Check power supply status, mendatory for SDHC card
    2d28:	4a ea       	ldi	r20, 0xAA	; 170
    2d2a:	51 e0       	ldi	r21, 0x01	; 1
    2d2c:	60 e0       	ldi	r22, 0x00	; 0
    2d2e:	70 e0       	ldi	r23, 0x00	; 0
    2d30:	88 e0       	ldi	r24, 0x08	; 8
    2d32:	0e 94 08 16 	call	0x2c10	; 0x2c10 <SD_sendCommand>
    2d36:	ce ef       	ldi	r28, 0xFE	; 254
    2d38:	d0 e0       	ldi	r29, 0x00	; 0
    2d3a:	12 c0       	rjmp	.+36     	; 0x2d60 <SD_init+0x82>
    2d3c:	4a ea       	ldi	r20, 0xAA	; 170
    2d3e:	51 e0       	ldi	r21, 0x01	; 1
    2d40:	60 e0       	ldi	r22, 0x00	; 0
    2d42:	70 e0       	ldi	r23, 0x00	; 0
    2d44:	88 e0       	ldi	r24, 0x08	; 8
    2d46:	0e 94 08 16 	call	0x2c10	; 0x2c10 <SD_sendCommand>
    2d4a:	21 97       	sbiw	r28, 0x01	; 1
retry++;
if(retry>0xfe) 
    2d4c:	49 f4       	brne	.+18     	; 0x2d60 <SD_init+0x82>
   {
	  TX_NEWLINE;
    2d4e:	85 e9       	ldi	r24, 0x95	; 149
    2d50:	90 e0       	ldi	r25, 0x00	; 0
    2d52:	0e 94 db 17 	call	0x2fb6	; 0x2fb6 <usart_write_str>
	  SD_version = 1;
	  cardType = 1;
    2d56:	81 e0       	ldi	r24, 0x01	; 1
    2d58:	80 93 ab 05 	sts	0x05AB, r24
response = SD_sendCommand(SEND_IF_COND,0x000001AA); //Check power supply status, mendatory for SDHC card
retry++;
if(retry>0xfe) 
   {
	  TX_NEWLINE;
	  SD_version = 1;
    2d5c:	11 e0       	ldi	r17, 0x01	; 1
	  cardType = 1;
	  break;
    2d5e:	03 c0       	rjmp	.+6      	; 0x2d66 <SD_init+0x88>
   } //time out

}while(response != 0x01);
    2d60:	81 30       	cpi	r24, 0x01	; 1
    2d62:	61 f7       	brne	.-40     	; 0x2d3c <SD_init+0x5e>
SPI_transmit (0xff);
SPI_transmit (0xff);

retry = 0;

SD_version = 2; //default set to SD compliance with ver2.x; 
    2d64:	12 e0       	ldi	r17, 0x02	; 2

retry = 0;

do
{
response = SD_sendCommand(APP_CMD,0); //CMD55, must be sent before sending any ACMD command
    2d66:	40 e0       	ldi	r20, 0x00	; 0
    2d68:	50 e0       	ldi	r21, 0x00	; 0
    2d6a:	ba 01       	movw	r22, r20
    2d6c:	87 e3       	ldi	r24, 0x37	; 55
    2d6e:	0e 94 08 16 	call	0x2c10	; 0x2c10 <SD_sendCommand>
response = SD_sendCommand(SD_SEND_OP_COND,0x40000000); //ACMD41
    2d72:	40 e0       	ldi	r20, 0x00	; 0
    2d74:	50 e0       	ldi	r21, 0x00	; 0
    2d76:	60 e0       	ldi	r22, 0x00	; 0
    2d78:	70 e4       	ldi	r23, 0x40	; 64
    2d7a:	89 e2       	ldi	r24, 0x29	; 41
    2d7c:	0e 94 08 16 	call	0x2c10	; 0x2c10 <SD_sendCommand>
    2d80:	ce ef       	ldi	r28, 0xFE	; 254
    2d82:	d0 e0       	ldi	r29, 0x00	; 0
    2d84:	15 c0       	rjmp	.+42     	; 0x2db0 <SD_init+0xd2>

retry = 0;

do
{
response = SD_sendCommand(APP_CMD,0); //CMD55, must be sent before sending any ACMD command
    2d86:	40 e0       	ldi	r20, 0x00	; 0
    2d88:	50 e0       	ldi	r21, 0x00	; 0
    2d8a:	ba 01       	movw	r22, r20
    2d8c:	87 e3       	ldi	r24, 0x37	; 55
    2d8e:	0e 94 08 16 	call	0x2c10	; 0x2c10 <SD_sendCommand>
response = SD_sendCommand(SD_SEND_OP_COND,0x40000000); //ACMD41
    2d92:	40 e0       	ldi	r20, 0x00	; 0
    2d94:	50 e0       	ldi	r21, 0x00	; 0
    2d96:	60 e0       	ldi	r22, 0x00	; 0
    2d98:	70 e4       	ldi	r23, 0x40	; 64
    2d9a:	89 e2       	ldi	r24, 0x29	; 41
    2d9c:	0e 94 08 16 	call	0x2c10	; 0x2c10 <SD_sendCommand>
    2da0:	21 97       	sbiw	r28, 0x01	; 1

retry++;
if(retry>0xfe) 
    2da2:	31 f4       	brne	.+12     	; 0x2db0 <SD_init+0xd2>
   {
      TX_NEWLINE;
    2da4:	85 e9       	ldi	r24, 0x95	; 149
    2da6:	90 e0       	ldi	r25, 0x00	; 0
    2da8:	0e 94 db 17 	call	0x2fb6	; 0x2fb6 <usart_write_str>
	  return 2;  //time out, card initialization failed
    2dac:	82 e0       	ldi	r24, 0x02	; 2
    2dae:	31 c0       	rjmp	.+98     	; 0x2e12 <SD_init+0x134>
   } 

}while(response != 0x00);
    2db0:	81 11       	cpse	r24, r1
    2db2:	e9 cf       	rjmp	.-46     	; 0x2d86 <SD_init+0xa8>


retry = 0;
SDHC_flag = 0;
    2db4:	10 92 3c 05 	sts	0x053C, r1

if (SD_version == 2)
    2db8:	12 30       	cpi	r17, 0x02	; 2
    2dba:	11 f1       	breq	.+68     	; 0x2e00 <SD_init+0x122>
    2dbc:	2a c0       	rjmp	.+84     	; 0x2e12 <SD_init+0x134>
{ 
   do
   {
	 response = SD_sendCommand(READ_OCR,0);
    2dbe:	40 e0       	ldi	r20, 0x00	; 0
    2dc0:	50 e0       	ldi	r21, 0x00	; 0
    2dc2:	ba 01       	movw	r22, r20
    2dc4:	8a e3       	ldi	r24, 0x3A	; 58
    2dc6:	0e 94 08 16 	call	0x2c10	; 0x2c10 <SD_sendCommand>
    2dca:	21 97       	sbiw	r28, 0x01	; 1
	 retry++;
	 if(retry>0xfe) 
    2dcc:	39 f4       	brne	.+14     	; 0x2ddc <SD_init+0xfe>
     {
       TX_NEWLINE;
    2dce:	85 e9       	ldi	r24, 0x95	; 149
    2dd0:	90 e0       	ldi	r25, 0x00	; 0
    2dd2:	0e 94 db 17 	call	0x2fb6	; 0x2fb6 <usart_write_str>
	   cardType = 0;
    2dd6:	10 92 ab 05 	sts	0x05AB, r1
	   break;
    2dda:	02 c0       	rjmp	.+4      	; 0x2de0 <SD_init+0x102>
     } //time out

   }while(response != 0x00);
    2ddc:	81 11       	cpse	r24, r1
    2dde:	ef cf       	rjmp	.-34     	; 0x2dbe <SD_init+0xe0>

   if(SDHC_flag == 1) cardType = 2;
    2de0:	80 91 3c 05 	lds	r24, 0x053C
    2de4:	81 30       	cpi	r24, 0x01	; 1
    2de6:	29 f4       	brne	.+10     	; 0x2df2 <SD_init+0x114>
    2de8:	82 e0       	ldi	r24, 0x02	; 2
    2dea:	80 93 ab 05 	sts	0x05AB, r24

//SD_sendCommand(CRC_ON_OFF, OFF); //disable CRC; deafault - CRC disabled in SPI mode
//SD_sendCommand(SET_BLOCK_LEN, 512); //set block size to 512; default size is 512


return 0; //successful return
    2dee:	80 e0       	ldi	r24, 0x00	; 0
    2df0:	10 c0       	rjmp	.+32     	; 0x2e12 <SD_init+0x134>
     } //time out

   }while(response != 0x00);

   if(SDHC_flag == 1) cardType = 2;
   else cardType = 3;
    2df2:	83 e0       	ldi	r24, 0x03	; 3
    2df4:	80 93 ab 05 	sts	0x05AB, r24

//SD_sendCommand(CRC_ON_OFF, OFF); //disable CRC; deafault - CRC disabled in SPI mode
//SD_sendCommand(SET_BLOCK_LEN, 512); //set block size to 512; default size is 512


return 0; //successful return
    2df8:	80 e0       	ldi	r24, 0x00	; 0
    2dfa:	0b c0       	rjmp	.+22     	; 0x2e12 <SD_init+0x134>
{
  
   response = SD_sendCommand(GO_IDLE_STATE, 0); //send 'reset & go idle' command
   retry++;
   if(retry>0x20) 
   	  return 1;   //time out, card not detected
    2dfc:	81 e0       	ldi	r24, 0x01	; 1
    2dfe:	09 c0       	rjmp	.+18     	; 0x2e12 <SD_init+0x134>

if (SD_version == 2)
{ 
   do
   {
	 response = SD_sendCommand(READ_OCR,0);
    2e00:	40 e0       	ldi	r20, 0x00	; 0
    2e02:	50 e0       	ldi	r21, 0x00	; 0
    2e04:	ba 01       	movw	r22, r20
    2e06:	8a e3       	ldi	r24, 0x3A	; 58
    2e08:	0e 94 08 16 	call	0x2c10	; 0x2c10 <SD_sendCommand>
    2e0c:	ce ef       	ldi	r28, 0xFE	; 254
    2e0e:	d0 e0       	ldi	r29, 0x00	; 0
    2e10:	e5 cf       	rjmp	.-54     	; 0x2ddc <SD_init+0xfe>
//SD_sendCommand(CRC_ON_OFF, OFF); //disable CRC; deafault - CRC disabled in SPI mode
//SD_sendCommand(SET_BLOCK_LEN, 512); //set block size to 512; default size is 512


return 0; //successful return
}
    2e12:	df 91       	pop	r29
    2e14:	cf 91       	pop	r28
    2e16:	1f 91       	pop	r17
    2e18:	08 95       	ret

00002e1a <SD_readSingleBlock>:
//Arguments	: none
//return	: unsigned char; will be 0 if no error,
// 			  otherwise the response byte will be sent
//******************************************************************
unsigned char SD_readSingleBlock(unsigned long startBlock)
{
    2e1a:	1f 93       	push	r17
    2e1c:	cf 93       	push	r28
    2e1e:	df 93       	push	r29
    2e20:	ab 01       	movw	r20, r22
    2e22:	bc 01       	movw	r22, r24
unsigned char response;
unsigned int i, retry=0;

 response = SD_sendCommand(READ_SINGLE_BLOCK, startBlock); //read a Block command
    2e24:	81 e1       	ldi	r24, 0x11	; 17
    2e26:	0e 94 08 16 	call	0x2c10	; 0x2c10 <SD_sendCommand>
    2e2a:	18 2f       	mov	r17, r24
 
 if(response != 0x00) return response; //check for SD status: 0x00 - OK (No flags set)
    2e2c:	81 11       	cpse	r24, r1
    2e2e:	21 c0       	rjmp	.+66     	; 0x2e72 <SD_readSingleBlock+0x58>

SD_CS_ASSERT;
    2e30:	c0 98       	cbi	0x18, 0	; 24

retry = 0;
while(SPI_receive() != 0xfe) //wait for start block token 0xfe (0x11111110)
    2e32:	c0 e0       	ldi	r28, 0x00	; 0
    2e34:	d0 e0       	ldi	r29, 0x00	; 0
    2e36:	05 c0       	rjmp	.+10     	; 0x2e42 <SD_readSingleBlock+0x28>
    2e38:	21 97       	sbiw	r28, 0x01	; 1
  if(retry++ > 0xfffe){SD_CS_DEASSERT; return 1;} //return if time-out
    2e3a:	19 f4       	brne	.+6      	; 0x2e42 <SD_readSingleBlock+0x28>
    2e3c:	c0 9a       	sbi	0x18, 0	; 24
    2e3e:	11 e0       	ldi	r17, 0x01	; 1
    2e40:	18 c0       	rjmp	.+48     	; 0x2e72 <SD_readSingleBlock+0x58>
 if(response != 0x00) return response; //check for SD status: 0x00 - OK (No flags set)

SD_CS_ASSERT;

retry = 0;
while(SPI_receive() != 0xfe) //wait for start block token 0xfe (0x11111110)
    2e42:	0e 94 ad 17 	call	0x2f5a	; 0x2f5a <SPI_receive>
    2e46:	8e 3f       	cpi	r24, 0xFE	; 254
    2e48:	b9 f7       	brne	.-18     	; 0x2e38 <SD_readSingleBlock+0x1e>
    2e4a:	c0 e0       	ldi	r28, 0x00	; 0
    2e4c:	d0 e0       	ldi	r29, 0x00	; 0
  if(retry++ > 0xfffe){SD_CS_DEASSERT; return 1;} //return if time-out

for(i=0; i<512; i++) //read 512 bytes
  buffer[i] = SPI_receive();
    2e4e:	0e 94 ad 17 	call	0x2f5a	; 0x2f5a <SPI_receive>
    2e52:	fe 01       	movw	r30, r28
    2e54:	ea 5c       	subi	r30, 0xCA	; 202
    2e56:	fc 4f       	sbci	r31, 0xFC	; 252
    2e58:	80 83       	st	Z, r24

retry = 0;
while(SPI_receive() != 0xfe) //wait for start block token 0xfe (0x11111110)
  if(retry++ > 0xfffe){SD_CS_DEASSERT; return 1;} //return if time-out

for(i=0; i<512; i++) //read 512 bytes
    2e5a:	21 96       	adiw	r28, 0x01	; 1
    2e5c:	c1 15       	cp	r28, r1
    2e5e:	82 e0       	ldi	r24, 0x02	; 2
    2e60:	d8 07       	cpc	r29, r24
    2e62:	a9 f7       	brne	.-22     	; 0x2e4e <SD_readSingleBlock+0x34>
  buffer[i] = SPI_receive();

SPI_receive(); //receive incoming CRC (16-bit), CRC is ignored here
    2e64:	0e 94 ad 17 	call	0x2f5a	; 0x2f5a <SPI_receive>
SPI_receive();
    2e68:	0e 94 ad 17 	call	0x2f5a	; 0x2f5a <SPI_receive>

SPI_receive(); //extra 8 clock pulses
    2e6c:	0e 94 ad 17 	call	0x2f5a	; 0x2f5a <SPI_receive>
SD_CS_DEASSERT;
    2e70:	c0 9a       	sbi	0x18, 0	; 24

return 0;
}
    2e72:	81 2f       	mov	r24, r17
    2e74:	df 91       	pop	r29
    2e76:	cf 91       	pop	r28
    2e78:	1f 91       	pop	r17
    2e7a:	08 95       	ret

00002e7c <SD_writeSingleBlock>:
//Arguments	: none
//return	: unsigned char; will be 0 if no error,
// 			  otherwise the response byte will be sent
//******************************************************************
unsigned char SD_writeSingleBlock(unsigned long startBlock)
{
    2e7c:	ff 92       	push	r15
    2e7e:	0f 93       	push	r16
    2e80:	1f 93       	push	r17
    2e82:	cf 93       	push	r28
    2e84:	df 93       	push	r29
    2e86:	ab 01       	movw	r20, r22
    2e88:	bc 01       	movw	r22, r24
unsigned char response;
unsigned int i, retry=0;

 response = SD_sendCommand(WRITE_SINGLE_BLOCK, startBlock); //write a Block command
    2e8a:	88 e1       	ldi	r24, 0x18	; 24
    2e8c:	0e 94 08 16 	call	0x2c10	; 0x2c10 <SD_sendCommand>
    2e90:	f8 2e       	mov	r15, r24
  
 if(response != 0x00) return response; //check for SD status: 0x00 - OK (No flags set)
    2e92:	81 11       	cpse	r24, r1
    2e94:	46 c0       	rjmp	.+140    	; 0x2f22 <SD_writeSingleBlock+0xa6>

SD_CS_ASSERT;
    2e96:	c0 98       	cbi	0x18, 0	; 24

SPI_transmit(0xfe);     //Send start block token 0xfe (0x11111110)
    2e98:	8e ef       	ldi	r24, 0xFE	; 254
    2e9a:	0e 94 9f 17 	call	0x2f3e	; 0x2f3e <SPI_transmit>

for(i=0; i<512; i++)    //send 512 bytes data
    2e9e:	c0 e0       	ldi	r28, 0x00	; 0
    2ea0:	d0 e0       	ldi	r29, 0x00	; 0
  SPI_transmit(buffer[i]);
    2ea2:	fe 01       	movw	r30, r28
    2ea4:	ea 5c       	subi	r30, 0xCA	; 202
    2ea6:	fc 4f       	sbci	r31, 0xFC	; 252
    2ea8:	80 81       	ld	r24, Z
    2eaa:	0e 94 9f 17 	call	0x2f3e	; 0x2f3e <SPI_transmit>

SD_CS_ASSERT;

SPI_transmit(0xfe);     //Send start block token 0xfe (0x11111110)

for(i=0; i<512; i++)    //send 512 bytes data
    2eae:	21 96       	adiw	r28, 0x01	; 1
    2eb0:	c1 15       	cp	r28, r1
    2eb2:	82 e0       	ldi	r24, 0x02	; 2
    2eb4:	d8 07       	cpc	r29, r24
    2eb6:	a9 f7       	brne	.-22     	; 0x2ea2 <SD_writeSingleBlock+0x26>
  SPI_transmit(buffer[i]);

SPI_transmit(0xff);     //transmit dummy CRC (16-bit), CRC is ignored here
    2eb8:	8f ef       	ldi	r24, 0xFF	; 255
    2eba:	0e 94 9f 17 	call	0x2f3e	; 0x2f3e <SPI_transmit>
SPI_transmit(0xff);
    2ebe:	8f ef       	ldi	r24, 0xFF	; 255
    2ec0:	0e 94 9f 17 	call	0x2f3e	; 0x2f3e <SPI_transmit>

response = SPI_receive();
    2ec4:	0e 94 ad 17 	call	0x2f5a	; 0x2f5a <SPI_receive>

if( (response & 0x1f) != 0x05) //response= 0xXXX0AAA1 ; AAA='010' - data accepted
    2ec8:	98 2f       	mov	r25, r24
    2eca:	9f 71       	andi	r25, 0x1F	; 31
    2ecc:	95 30       	cpi	r25, 0x05	; 5
    2ece:	59 f0       	breq	.+22     	; 0x2ee6 <SD_writeSingleBlock+0x6a>
{                              //AAA='101'-data rejected due to CRC error
  SD_CS_DEASSERT;              //AAA='110'-data rejected due to write error
    2ed0:	c0 9a       	sbi	0x18, 0	; 24
  return response;
    2ed2:	f8 2e       	mov	r15, r24
    2ed4:	26 c0       	rjmp	.+76     	; 0x2f22 <SD_writeSingleBlock+0xa6>
}

while(!SPI_receive()) //wait for SD card to complete writing and get idle
if(retry++ > 0xfffe){SD_CS_DEASSERT; return 1;}
    2ed6:	0f 5f       	subi	r16, 0xFF	; 255
    2ed8:	1f 4f       	sbci	r17, 0xFF	; 255
    2eda:	21 97       	sbiw	r28, 0x01	; 1
    2edc:	41 f4       	brne	.+16     	; 0x2eee <SD_writeSingleBlock+0x72>
    2ede:	c0 9a       	sbi	0x18, 0	; 24
    2ee0:	ff 24       	eor	r15, r15
    2ee2:	f3 94       	inc	r15
    2ee4:	1e c0       	rjmp	.+60     	; 0x2f22 <SD_writeSingleBlock+0xa6>
SPI_transmit(0xff);     //transmit dummy CRC (16-bit), CRC is ignored here
SPI_transmit(0xff);

response = SPI_receive();

if( (response & 0x1f) != 0x05) //response= 0xXXX0AAA1 ; AAA='010' - data accepted
    2ee6:	c0 e0       	ldi	r28, 0x00	; 0
    2ee8:	d0 e0       	ldi	r29, 0x00	; 0
    2eea:	00 e0       	ldi	r16, 0x00	; 0
    2eec:	10 e0       	ldi	r17, 0x00	; 0
{                              //AAA='101'-data rejected due to CRC error
  SD_CS_DEASSERT;              //AAA='110'-data rejected due to write error
  return response;
}

while(!SPI_receive()) //wait for SD card to complete writing and get idle
    2eee:	0e 94 ad 17 	call	0x2f5a	; 0x2f5a <SPI_receive>
    2ef2:	88 23       	and	r24, r24
    2ef4:	81 f3       	breq	.-32     	; 0x2ed6 <SD_writeSingleBlock+0x5a>
if(retry++ > 0xfffe){SD_CS_DEASSERT; return 1;}

SD_CS_DEASSERT;
    2ef6:	c0 9a       	sbi	0x18, 0	; 24
SPI_transmit(0xff);   //just spend 8 clock cycle delay before reasserting the CS line
    2ef8:	8f ef       	ldi	r24, 0xFF	; 255
    2efa:	0e 94 9f 17 	call	0x2f3e	; 0x2f3e <SPI_transmit>
SD_CS_ASSERT;         //re-asserting the CS line to verify if card is still busy
    2efe:	c0 98       	cbi	0x18, 0	; 24

while(!SPI_receive()) //wait for SD card to complete writing and get idle
    2f00:	0b c0       	rjmp	.+22     	; 0x2f18 <SD_writeSingleBlock+0x9c>
   if(retry++ > 0xfffe){SD_CS_DEASSERT; return 1;}
    2f02:	98 01       	movw	r18, r16
    2f04:	2f 5f       	subi	r18, 0xFF	; 255
    2f06:	3f 4f       	sbci	r19, 0xFF	; 255
    2f08:	0f 3f       	cpi	r16, 0xFF	; 255
    2f0a:	1f 4f       	sbci	r17, 0xFF	; 255
    2f0c:	21 f4       	brne	.+8      	; 0x2f16 <SD_writeSingleBlock+0x9a>
    2f0e:	c0 9a       	sbi	0x18, 0	; 24
    2f10:	ff 24       	eor	r15, r15
    2f12:	f3 94       	inc	r15
    2f14:	06 c0       	rjmp	.+12     	; 0x2f22 <SD_writeSingleBlock+0xa6>
    2f16:	89 01       	movw	r16, r18

SD_CS_DEASSERT;
SPI_transmit(0xff);   //just spend 8 clock cycle delay before reasserting the CS line
SD_CS_ASSERT;         //re-asserting the CS line to verify if card is still busy

while(!SPI_receive()) //wait for SD card to complete writing and get idle
    2f18:	0e 94 ad 17 	call	0x2f5a	; 0x2f5a <SPI_receive>
    2f1c:	88 23       	and	r24, r24
    2f1e:	89 f3       	breq	.-30     	; 0x2f02 <SD_writeSingleBlock+0x86>
   if(retry++ > 0xfffe){SD_CS_DEASSERT; return 1;}
SD_CS_DEASSERT;
    2f20:	c0 9a       	sbi	0x18, 0	; 24

return 0;
}
    2f22:	8f 2d       	mov	r24, r15
    2f24:	df 91       	pop	r29
    2f26:	cf 91       	pop	r28
    2f28:	1f 91       	pop	r17
    2f2a:	0f 91       	pop	r16
    2f2c:	ff 90       	pop	r15
    2f2e:	08 95       	ret

00002f30 <swspi_init>:
	SPSR = 0x00;*/
}

void swspi_init(void)
{
	MMC_Write |= (1<<MMC_Chip_Select)|(1<<SPI_DO)|(1<<SPI_DI); 			//Init ports
    2f30:	88 b3       	in	r24, 0x18	; 24
    2f32:	8b 60       	ori	r24, 0x0B	; 11
    2f34:	88 bb       	out	0x18, r24	; 24
	MMC_Direction_REG |= (1<<MMC_Chip_Select)|(1<<SPI_DI)|(1<<SPI_Clock);
    2f36:	87 b3       	in	r24, 0x17	; 23
    2f38:	87 60       	ori	r24, 0x07	; 7
    2f3a:	87 bb       	out	0x17, r24	; 23
    2f3c:	08 95       	ret

00002f3e <SPI_transmit>:
}	

unsigned char SPI_transmit(unsigned char data)
{
    2f3e:	98 e0       	ldi	r25, 0x08	; 8
	unsigned char i;

	for (i=0;i<8;i++)
	{
		if ((data&0x80)==0x00) MMC_Write &= ~(1<<SPI_DI);	//Set data bit
    2f40:	88 23       	and	r24, r24
    2f42:	14 f0       	brlt	.+4      	; 0x2f48 <SPI_transmit+0xa>
    2f44:	c1 98       	cbi	0x18, 1	; 24
    2f46:	01 c0       	rjmp	.+2      	; 0x2f4a <SPI_transmit+0xc>
		else MMC_Write |= (1<<SPI_DI);
    2f48:	c1 9a       	sbi	0x18, 1	; 24
		data=data<<1; 
    2f4a:	88 0f       	add	r24, r24
		MMC_Write |= (1<<SPI_Clock);						//Strobe
    2f4c:	c2 9a       	sbi	0x18, 2	; 24
		asm("nop"); 
    2f4e:	00 00       	nop
		MMC_Write &= ~(1<<SPI_Clock);
    2f50:	c2 98       	cbi	0x18, 2	; 24
    2f52:	91 50       	subi	r25, 0x01	; 1

unsigned char SPI_transmit(unsigned char data)
{
	unsigned char i;

	for (i=0;i<8;i++)
    2f54:	a9 f7       	brne	.-22     	; 0x2f40 <SPI_transmit+0x2>
		MMC_Write |= (1<<SPI_Clock);						//Strobe
		asm("nop"); 
		MMC_Write &= ~(1<<SPI_Clock);
	}
	return(0);
}
    2f56:	80 e0       	ldi	r24, 0x00	; 0
    2f58:	08 95       	ret

00002f5a <SPI_receive>:

unsigned char SPI_receive(void)
{
    2f5a:	98 e0       	ldi	r25, 0x08	; 8
	unsigned char i, res=0;
    2f5c:	80 e0       	ldi	r24, 0x00	; 0

	for (i=0;i<8;i++)
	{
		MMC_Write |= (1<<SPI_Clock);					//Start strobe
    2f5e:	c2 9a       	sbi	0x18, 2	; 24
		res=res<<1;
    2f60:	88 0f       	add	r24, r24
		if ((MMC_Read&_BV(SPI_DO))!=0x00) res=res|0x01;	//Get data bit
    2f62:	b3 99       	sbic	0x16, 3	; 22
    2f64:	81 60       	ori	r24, 0x01	; 1
		MMC_Write &= ~(1<<SPI_Clock);					//End strobe
    2f66:	c2 98       	cbi	0x18, 2	; 24
		asm("nop");
    2f68:	00 00       	nop
    2f6a:	91 50       	subi	r25, 0x01	; 1

unsigned char SPI_receive(void)
{
	unsigned char i, res=0;

	for (i=0;i<8;i++)
    2f6c:	c1 f7       	brne	.-16     	; 0x2f5e <SPI_receive+0x4>
		if ((MMC_Read&_BV(SPI_DO))!=0x00) res=res|0x01;	//Get data bit
		MMC_Write &= ~(1<<SPI_Clock);					//End strobe
		asm("nop");
	}
	return res;
}
    2f6e:	08 95       	ret

00002f70 <usart_init>:
//Init serielle Schnittstelle
void usart_init(unsigned long baudrate) 
{ 
	//Serielle Schnittstelle 1
  	//Enable TXEN im Register UCR TX-Data Enable
	UCR = (1 << TXEN | 1 << RXEN ); //| 1<< RXCIE
    2f70:	28 e1       	ldi	r18, 0x18	; 24
    2f72:	2a b9       	out	0x0a, r18	; 10
	// 1 = Parity Mode Enabled, Even Parity
	// 2 = Parity Mode Enabled, Odd Parity
	//UCSRC = 0x06 + ((parity+1)<<4);
	//UCSRC |= (1<<USBS);
	//Teiler wird gesetzt 
	UBRR=(F_CPU / (baudrate * 16L) - 1);
    2f74:	dc 01       	movw	r26, r24
    2f76:	cb 01       	movw	r24, r22
    2f78:	88 0f       	add	r24, r24
    2f7a:	99 1f       	adc	r25, r25
    2f7c:	aa 1f       	adc	r26, r26
    2f7e:	bb 1f       	adc	r27, r27
    2f80:	88 0f       	add	r24, r24
    2f82:	99 1f       	adc	r25, r25
    2f84:	aa 1f       	adc	r26, r26
    2f86:	bb 1f       	adc	r27, r27
    2f88:	9c 01       	movw	r18, r24
    2f8a:	ad 01       	movw	r20, r26
    2f8c:	22 0f       	add	r18, r18
    2f8e:	33 1f       	adc	r19, r19
    2f90:	44 1f       	adc	r20, r20
    2f92:	55 1f       	adc	r21, r21
    2f94:	22 0f       	add	r18, r18
    2f96:	33 1f       	adc	r19, r19
    2f98:	44 1f       	adc	r20, r20
    2f9a:	55 1f       	adc	r21, r21
    2f9c:	60 e0       	ldi	r22, 0x00	; 0
    2f9e:	74 e2       	ldi	r23, 0x24	; 36
    2fa0:	84 ef       	ldi	r24, 0xF4	; 244
    2fa2:	90 e0       	ldi	r25, 0x00	; 0
    2fa4:	0e 94 21 18 	call	0x3042	; 0x3042 <__udivmodsi4>
    2fa8:	21 50       	subi	r18, 0x01	; 1
    2faa:	29 b9       	out	0x09, r18	; 9
    2fac:	08 95       	ret

00002fae <usart_write_char>:
//----------------------------------------------------------------------------
//Routine fr die Serielle Ausgabe eines Zeichens (Schnittstelle0)
void usart_write_char(char c)
{
    //Warten solange bis Zeichen gesendet wurde
    while(!(USR & (1<<UDRE)));
    2fae:	5d 9b       	sbis	0x0b, 5	; 11
    2fb0:	fe cf       	rjmp	.-4      	; 0x2fae <usart_write_char>
    //Ausgabe des Zeichens
    UDR = c;
    2fb2:	8c b9       	out	0x0c, r24	; 12
    2fb4:	08 95       	ret

00002fb6 <usart_write_str>:
}

//----------------------------------------------------------------------------
//Ausgabe eines Strings
void usart_write_str(char *str)
{
    2fb6:	cf 93       	push	r28
    2fb8:	df 93       	push	r29
    2fba:	ec 01       	movw	r28, r24
	while (*str)
    2fbc:	88 81       	ld	r24, Y
    2fbe:	88 23       	and	r24, r24
    2fc0:	31 f0       	breq	.+12     	; 0x2fce <usart_write_str+0x18>
	va_end(ap);
}

//----------------------------------------------------------------------------
//Ausgabe eines Strings
void usart_write_str(char *str)
    2fc2:	21 96       	adiw	r28, 0x01	; 1
{
	while (*str)
	{
		usart_write_char(*str++);
    2fc4:	0e 94 d7 17 	call	0x2fae	; 0x2fae <usart_write_char>

//----------------------------------------------------------------------------
//Ausgabe eines Strings
void usart_write_str(char *str)
{
	while (*str)
    2fc8:	89 91       	ld	r24, Y+
    2fca:	81 11       	cpse	r24, r1
    2fcc:	fb cf       	rjmp	.-10     	; 0x2fc4 <usart_write_str+0xe>
	{
		usart_write_char(*str++);
	}
}
    2fce:	df 91       	pop	r29
    2fd0:	cf 91       	pop	r28
    2fd2:	08 95       	ret

00002fd4 <transmitByte>:
//***************************************************
//Function to transmit a single byte
//***************************************************
void transmitByte( unsigned char data )
{
	while ( !(UCSRA & (1<<UDRE)) )
    2fd4:	5d 9b       	sbis	0x0b, 5	; 11
    2fd6:	fe cf       	rjmp	.-4      	; 0x2fd4 <transmitByte>
		; 			                /* Wait for empty transmit buffer */
	UDR = data; 			        /* Start transmition */
    2fd8:	8c b9       	out	0x0c, r24	; 12
    2fda:	08 95       	ret

00002fdc <transmitString_F>:

//***************************************************
//Function to transmit a string in Flash
//***************************************************
void transmitString_F(char* string)
{
    2fdc:	cf 93       	push	r28
    2fde:	df 93       	push	r29
    2fe0:	ec 01       	movw	r28, r24
  while (pgm_read_byte(&(*string)))
    2fe2:	fe 01       	movw	r30, r28
    2fe4:	24 91       	lpm	r18, Z
    2fe6:	22 23       	and	r18, r18
    2fe8:	51 f0       	breq	.+20     	; 0x2ffe <transmitString_F+0x22>
   transmitByte(pgm_read_byte(&(*string++)));
    2fea:	21 96       	adiw	r28, 0x01	; 1
    2fec:	fc 01       	movw	r30, r24
    2fee:	84 91       	lpm	r24, Z
    2ff0:	0e 94 ea 17 	call	0x2fd4	; 0x2fd4 <transmitByte>
//***************************************************
//Function to transmit a string in Flash
//***************************************************
void transmitString_F(char* string)
{
  while (pgm_read_byte(&(*string)))
    2ff4:	ce 01       	movw	r24, r28
    2ff6:	fe 01       	movw	r30, r28
    2ff8:	24 91       	lpm	r18, Z
    2ffa:	21 11       	cpse	r18, r1
    2ffc:	f6 cf       	rjmp	.-20     	; 0x2fea <transmitString_F+0xe>
   transmitByte(pgm_read_byte(&(*string++)));
}
    2ffe:	df 91       	pop	r29
    3000:	cf 91       	pop	r28
    3002:	08 95       	ret

00003004 <transmitString>:

//***************************************************
//Function to transmit a string in RAM
//***************************************************
void transmitString(unsigned char* string)
{
    3004:	cf 93       	push	r28
    3006:	df 93       	push	r29
    3008:	ec 01       	movw	r28, r24
  while (*string)
    300a:	88 81       	ld	r24, Y
    300c:	88 23       	and	r24, r24
    300e:	31 f0       	breq	.+12     	; 0x301c <transmitString+0x18>
}

//***************************************************
//Function to transmit a string in RAM
//***************************************************
void transmitString(unsigned char* string)
    3010:	21 96       	adiw	r28, 0x01	; 1
{
  while (*string)
   transmitByte(*string++);
    3012:	0e 94 ea 17 	call	0x2fd4	; 0x2fd4 <transmitByte>
//***************************************************
//Function to transmit a string in RAM
//***************************************************
void transmitString(unsigned char* string)
{
  while (*string)
    3016:	89 91       	ld	r24, Y+
    3018:	81 11       	cpse	r24, r1
    301a:	fb cf       	rjmp	.-10     	; 0x3012 <transmitString+0xe>
   transmitByte(*string++);
    301c:	df 91       	pop	r29
    301e:	cf 91       	pop	r28
    3020:	08 95       	ret

00003022 <__mulsi3>:
    3022:	db 01       	movw	r26, r22
    3024:	8f 93       	push	r24
    3026:	9f 93       	push	r25
    3028:	0e 94 4f 18 	call	0x309e	; 0x309e <__muluhisi3>
    302c:	bf 91       	pop	r27
    302e:	af 91       	pop	r26
    3030:	a2 9f       	mul	r26, r18
    3032:	80 0d       	add	r24, r0
    3034:	91 1d       	adc	r25, r1
    3036:	a3 9f       	mul	r26, r19
    3038:	90 0d       	add	r25, r0
    303a:	b2 9f       	mul	r27, r18
    303c:	90 0d       	add	r25, r0
    303e:	11 24       	eor	r1, r1
    3040:	08 95       	ret

00003042 <__udivmodsi4>:
    3042:	a1 e2       	ldi	r26, 0x21	; 33
    3044:	1a 2e       	mov	r1, r26
    3046:	aa 1b       	sub	r26, r26
    3048:	bb 1b       	sub	r27, r27
    304a:	fd 01       	movw	r30, r26
    304c:	0d c0       	rjmp	.+26     	; 0x3068 <__udivmodsi4_ep>

0000304e <__udivmodsi4_loop>:
    304e:	aa 1f       	adc	r26, r26
    3050:	bb 1f       	adc	r27, r27
    3052:	ee 1f       	adc	r30, r30
    3054:	ff 1f       	adc	r31, r31
    3056:	a2 17       	cp	r26, r18
    3058:	b3 07       	cpc	r27, r19
    305a:	e4 07       	cpc	r30, r20
    305c:	f5 07       	cpc	r31, r21
    305e:	20 f0       	brcs	.+8      	; 0x3068 <__udivmodsi4_ep>
    3060:	a2 1b       	sub	r26, r18
    3062:	b3 0b       	sbc	r27, r19
    3064:	e4 0b       	sbc	r30, r20
    3066:	f5 0b       	sbc	r31, r21

00003068 <__udivmodsi4_ep>:
    3068:	66 1f       	adc	r22, r22
    306a:	77 1f       	adc	r23, r23
    306c:	88 1f       	adc	r24, r24
    306e:	99 1f       	adc	r25, r25
    3070:	1a 94       	dec	r1
    3072:	69 f7       	brne	.-38     	; 0x304e <__udivmodsi4_loop>
    3074:	60 95       	com	r22
    3076:	70 95       	com	r23
    3078:	80 95       	com	r24
    307a:	90 95       	com	r25
    307c:	9b 01       	movw	r18, r22
    307e:	ac 01       	movw	r20, r24
    3080:	bd 01       	movw	r22, r26
    3082:	cf 01       	movw	r24, r30
    3084:	08 95       	ret

00003086 <__umulhisi3>:
    3086:	a2 9f       	mul	r26, r18
    3088:	b0 01       	movw	r22, r0
    308a:	b3 9f       	mul	r27, r19
    308c:	c0 01       	movw	r24, r0
    308e:	a3 9f       	mul	r26, r19
    3090:	01 d0       	rcall	.+2      	; 0x3094 <__umulhisi3+0xe>
    3092:	b2 9f       	mul	r27, r18
    3094:	70 0d       	add	r23, r0
    3096:	81 1d       	adc	r24, r1
    3098:	11 24       	eor	r1, r1
    309a:	91 1d       	adc	r25, r1
    309c:	08 95       	ret

0000309e <__muluhisi3>:
    309e:	0e 94 43 18 	call	0x3086	; 0x3086 <__umulhisi3>
    30a2:	a5 9f       	mul	r26, r21
    30a4:	90 0d       	add	r25, r0
    30a6:	b4 9f       	mul	r27, r20
    30a8:	90 0d       	add	r25, r0
    30aa:	a4 9f       	mul	r26, r20
    30ac:	80 0d       	add	r24, r0
    30ae:	91 1d       	adc	r25, r1
    30b0:	11 24       	eor	r1, r1
    30b2:	08 95       	ret

000030b4 <memcmp>:
    30b4:	fb 01       	movw	r30, r22
    30b6:	dc 01       	movw	r26, r24
    30b8:	04 c0       	rjmp	.+8      	; 0x30c2 <memcmp+0xe>
    30ba:	8d 91       	ld	r24, X+
    30bc:	01 90       	ld	r0, Z+
    30be:	80 19       	sub	r24, r0
    30c0:	21 f4       	brne	.+8      	; 0x30ca <memcmp+0x16>
    30c2:	41 50       	subi	r20, 0x01	; 1
    30c4:	50 40       	sbci	r21, 0x00	; 0
    30c6:	c8 f7       	brcc	.-14     	; 0x30ba <memcmp+0x6>
    30c8:	88 1b       	sub	r24, r24
    30ca:	99 0b       	sbc	r25, r25
    30cc:	08 95       	ret

000030ce <strncmp>:
    30ce:	fb 01       	movw	r30, r22
    30d0:	dc 01       	movw	r26, r24
    30d2:	41 50       	subi	r20, 0x01	; 1
    30d4:	50 40       	sbci	r21, 0x00	; 0
    30d6:	30 f0       	brcs	.+12     	; 0x30e4 <strncmp+0x16>
    30d8:	8d 91       	ld	r24, X+
    30da:	01 90       	ld	r0, Z+
    30dc:	80 19       	sub	r24, r0
    30de:	19 f4       	brne	.+6      	; 0x30e6 <strncmp+0x18>
    30e0:	00 20       	and	r0, r0
    30e2:	b9 f7       	brne	.-18     	; 0x30d2 <strncmp+0x4>
    30e4:	88 1b       	sub	r24, r24
    30e6:	99 0b       	sbc	r25, r25
    30e8:	08 95       	ret

000030ea <_exit>:
    30ea:	f8 94       	cli

000030ec <__stop_program>:
    30ec:	ff cf       	rjmp	.-2      	; 0x30ec <__stop_program>
